; ModuleID = 'LLVMDialectModule'
source_filename = "LLVMDialectModule"
target datalayout = "e-m:e-p270:32:32-p271:32:32-p272:64:64-i64:64-f80:128-n8:16:32:64-S128"
target triple = "x86_64-unknown-linux-gnu"

%"struct.std::chrono::duration.0" = type { i64 }
%"struct.std::chrono::duration" = type { i64 }
%"struct.std::chrono::time_point" = type { %"struct.std::chrono::duration" }
%"class.__gnu_cxx::__normal_iterator" = type { i32* }
%"class.std::vector" = type { %"struct.std::_Vector_base" }
%"struct.std::_Vector_base" = type { %"struct.std::_Vector_base<int, std::allocator<int>>::_Vector_impl" }
%"struct.std::_Vector_base<int, std::allocator<int>>::_Vector_impl" = type { %"struct.std::_Vector_base<int, std::allocator<int>>::_Vector_impl_data" }
%"struct.std::_Vector_base<int, std::allocator<int>>::_Vector_impl_data" = type { i32*, i32*, i32* }
%class.anon.6 = type { i8 }
%class.anon = type { i8 }
%"class.std::vector.1" = type { %"struct.std::_Vector_base.2" }
%"struct.std::_Vector_base.2" = type { %"struct.std::_Vector_base<unsigned long, std::allocator<unsigned long>>::_Vector_impl" }
%"struct.std::_Vector_base<unsigned long, std::allocator<unsigned long>>::_Vector_impl" = type { %"struct.std::_Vector_base<unsigned long, std::allocator<unsigned long>>::_Vector_impl_data" }
%"struct.std::_Vector_base<unsigned long, std::allocator<unsigned long>>::_Vector_impl_data" = type { i64*, i64*, i64* }
%"class.std::vector.8" = type { %"struct.std::_Vector_base.9" }
%"struct.std::_Vector_base.9" = type { %"struct.std::_Vector_base<char, std::allocator<char>>::_Vector_impl" }
%"struct.std::_Vector_base<char, std::allocator<char>>::_Vector_impl" = type { %"struct.std::_Vector_base<char, std::allocator<char>>::_Vector_impl_data" }
%"struct.std::_Vector_base<char, std::allocator<char>>::_Vector_impl_data" = type { i8*, i8*, i8* }
%"class.std::allocator" = type { i8 }
%"class.std::move_iterator" = type { i64* }
%"class.std::allocator.3" = type { i8 }
%"class.__gnu_cxx::__normal_iterator.13" = type { i64* }
%"class.__gnu_cxx::new_allocator" = type { i8 }
%"struct.std::__is_move_insertable" = type { i8 }
%"class.__gnu_cxx::new_allocator.4" = type { i8 }
%"class.std::move_iterator.14" = type { i32* }
%"struct.std::__is_move_insertable.15" = type { i8 }
%"struct.std::integral_constant" = type { i8 }

@str9 = internal constant [26 x i8] c"vector::_M_realloc_insert\00"
@str8 = internal constant [16 x i8] c"vector::reserve\00"
@str7 = internal constant [9 x i8] c"VendorID\00"
@str6 = internal constant [4 x i8] c"}\0A\0A\00"
@str5 = internal constant [5 x i8] c"%d, \00"
@str4 = internal constant [2 x i8] c"{\00"
@str3 = internal constant [4 x i8] c"%f\0A\00"
@str2 = internal constant [19 x i8] c"store_and_fwd_flag\00"
@str1 = internal constant [45 x i8] c"calculate_distribution_store_and_fwd_flag()\0A\00"
@str0 = internal constant [16 x i8] c"Step 4: %ld us\0A\00"

; Function Attrs: inaccessiblememonly mustprogress nofree nounwind willreturn
declare noalias noundef i8* @malloc(i64) #0

declare void @free(i8*) #1

declare i32 @printf(i8*, ...) #1

define i32 @main() #1 !dbg !3 {
  %1 = alloca %"struct.std::chrono::duration.0", i64 1, align 8
  %2 = alloca %"struct.std::chrono::duration", i64 1, align 8
  %3 = alloca %"struct.std::chrono::time_point", i64 1, align 8
  %4 = alloca %"struct.std::chrono::time_point", i64 1, align 8
  %5 = alloca [10 x %"struct.std::chrono::time_point"], i64 1, align 8, !dbg !7
  %6 = getelementptr [10 x %"struct.std::chrono::time_point"], [10 x %"struct.std::chrono::time_point"]* %5, i32 0, i32 0, !dbg !9
  br label %7, !dbg !9

7:                                                ; preds = %10, %0
  %8 = phi i64 [ 0, %0 ], [ %12, %10 ]
  %9 = icmp slt i64 %8, 10, !dbg !9
  br i1 %9, label %10, label %13, !dbg !9

10:                                               ; preds = %7
  %11 = getelementptr %"struct.std::chrono::time_point", %"struct.std::chrono::time_point"* %6, i64 %8, !dbg !9
  call void @_ZNSt6chrono10time_pointINS_3_V212steady_clockENS_8durationIlSt5ratioILl1ELl1000000000EEEEEC1Ev(%"struct.std::chrono::time_point"* %11), !dbg !9
  %12 = add i64 %8, 1, !dbg !9
  br label %7, !dbg !9

13:                                               ; preds = %7
  %14 = call i8* @_Z9load_datav(), !dbg !10
  %15 = call %"struct.std::chrono::time_point" @_ZNSt6chrono3_V212steady_clock3nowEv(), !dbg !11
  store %"struct.std::chrono::time_point" %15, %"struct.std::chrono::time_point"* %4, align 8, !dbg !11
  %16 = call %"struct.std::chrono::time_point"* @_ZNSt6chrono10time_pointINS_3_V212steady_clockENS_8durationIlSt5ratioILl1ELl1000000000EEEEEaSEOS7_(%"struct.std::chrono::time_point"* %6, %"struct.std::chrono::time_point"* %4), !dbg !12
  call void @_Z41calculate_distribution_store_and_fwd_flagv(), !dbg !13
  %17 = getelementptr %"struct.std::chrono::time_point", %"struct.std::chrono::time_point"* %6, i32 1, !dbg !14
  %18 = call %"struct.std::chrono::time_point" @_ZNSt6chrono3_V212steady_clock3nowEv(), !dbg !15
  store %"struct.std::chrono::time_point" %18, %"struct.std::chrono::time_point"* %3, align 8, !dbg !15
  %19 = call %"struct.std::chrono::time_point"* @_ZNSt6chrono10time_pointINS_3_V212steady_clockENS_8durationIlSt5ratioILl1ELl1000000000EEEEEaSEOS7_(%"struct.std::chrono::time_point"* %17, %"struct.std::chrono::time_point"* %3), !dbg !16
  %20 = call %"struct.std::chrono::duration" @_ZNSt6chronomiINS_3_V212steady_clockENS_8durationIlSt5ratioILl1ELl1000000000EEEES6_EENSt11common_typeIJT0_T1_EE4typeERKNS_10time_pointIT_S8_EERKNSC_ISD_S9_EE(%"struct.std::chrono::time_point"* %17, %"struct.std::chrono::time_point"* %6), !dbg !17
  store %"struct.std::chrono::duration" %20, %"struct.std::chrono::duration"* %2, align 8, !dbg !18
  %21 = call %"struct.std::chrono::duration.0" @_ZNSt6chrono13duration_castINS_8durationIlSt5ratioILl1ELl1000000EEEElS2_ILl1ELl1000000000EEEENSt9enable_ifIXsr13__is_durationIT_EE5valueES7_E4typeERKNS1_IT0_T1_EE(%"struct.std::chrono::duration"* %2), !dbg !19
  store %"struct.std::chrono::duration.0" %21, %"struct.std::chrono::duration.0"* %1, align 8, !dbg !19
  %22 = call i64 @_ZNKSt6chrono8durationIlSt5ratioILl1ELl1000000EEE5countEv(%"struct.std::chrono::duration.0"* %1), !dbg !20
  %23 = call i32 (i8*, ...) @printf(i8* getelementptr inbounds ([16 x i8], [16 x i8]* @str0, i32 0, i32 0), i64 %22), !dbg !21
  ret i32 undef, !dbg !22
}

define linkonce_odr void @_ZNSt6chrono10time_pointINS_3_V212steady_clockENS_8durationIlSt5ratioILl1ELl1000000000EEEEEC1Ev(%"struct.std::chrono::time_point"* %0) #1 !dbg !23 {
  %2 = alloca %"struct.std::chrono::duration", i64 1, align 8
  %3 = alloca %"struct.std::chrono::duration", i64 1, align 8
  %4 = call %"struct.std::chrono::duration" @_ZNSt6chrono8durationIlSt5ratioILl1ELl1000000000EEE4zeroEv(), !dbg !25
  store %"struct.std::chrono::duration" %4, %"struct.std::chrono::duration"* %2, align 8, !dbg !25
  call void @_ZNSt6chrono8durationIlSt5ratioILl1ELl1000000000EEEC1ERKS3_(%"struct.std::chrono::duration"* %3, %"struct.std::chrono::duration"* %2), !dbg !27
  %5 = getelementptr %"struct.std::chrono::time_point", %"struct.std::chrono::time_point"* %0, i32 0, i32 0, !dbg !28
  %6 = load %"struct.std::chrono::duration", %"struct.std::chrono::duration"* %3, align 8, !dbg !28
  store %"struct.std::chrono::duration" %6, %"struct.std::chrono::duration"* %5, align 8, !dbg !28
  ret void, !dbg !29
}

declare i8* @_Z9load_datav() #1

define linkonce_odr %"struct.std::chrono::time_point"* @_ZNSt6chrono10time_pointINS_3_V212steady_clockENS_8durationIlSt5ratioILl1ELl1000000000EEEEEaSEOS7_(%"struct.std::chrono::time_point"* %0, %"struct.std::chrono::time_point"* %1) #1 !dbg !30 {
  %3 = getelementptr %"struct.std::chrono::time_point", %"struct.std::chrono::time_point"* %0, i32 0, i32 0, !dbg !31
  %4 = getelementptr %"struct.std::chrono::time_point", %"struct.std::chrono::time_point"* %1, i32 0, i32 0, !dbg !31
  %5 = call %"struct.std::chrono::duration"* @_ZNSt6chrono8durationIlSt5ratioILl1ELl1000000000EEEaSERKS3_(%"struct.std::chrono::duration"* %3, %"struct.std::chrono::duration"* %4), !dbg !31
  ret %"struct.std::chrono::time_point"* %0, !dbg !31
}

declare %"struct.std::chrono::time_point" @_ZNSt6chrono3_V212steady_clock3nowEv() #1

define void @_Z41calculate_distribution_store_and_fwd_flagv() #1 !dbg !33 {
  %1 = alloca %"class.__gnu_cxx::__normal_iterator", i64 1, align 8, !dbg !34
  %2 = alloca %"class.__gnu_cxx::__normal_iterator", i64 1, align 8
  %3 = alloca %"class.__gnu_cxx::__normal_iterator", i64 1, align 8
  %4 = alloca %"class.__gnu_cxx::__normal_iterator", i64 1, align 8, !dbg !34
  %5 = alloca %"class.__gnu_cxx::__normal_iterator", i64 1, align 8
  %6 = alloca %"class.__gnu_cxx::__normal_iterator", i64 1, align 8
  %7 = alloca i32, i64 1, align 4, !dbg !36
  store i32 undef, i32* %7, align 4, !dbg !36
  %8 = alloca %"class.std::vector", i64 1, align 8, !dbg !37
  %9 = alloca %"class.std::vector", i64 1, align 8, !dbg !38
  %10 = alloca %class.anon.6, i64 1, align 8, !dbg !39
  %11 = alloca %class.anon.6, i64 1, align 8
  %12 = alloca %"class.std::vector", i64 1, align 8, !dbg !40
  %13 = alloca %class.anon, i64 1, align 8, !dbg !41
  %14 = alloca %class.anon, i64 1, align 8
  %15 = call i32 (i8*, ...) @printf(i8* getelementptr inbounds ([45 x i8], [45 x i8]* @str1, i32 0, i32 0)), !dbg !42
  %16 = load %class.anon, %class.anon* %14, align 1, !dbg !41
  store %class.anon %16, %class.anon* %13, align 1, !dbg !41
  call void @_ZNSt6vectorIiSaIiEEC1Ev(%"class.std::vector"* %12), !dbg !43
  call void @"_Z15get_data_by_selIciZ41calculate_distribution_store_and_fwd_flagvE3$_0EvPKcRT1_RSt6vectorIT0_SaIS6_EE"(i8* getelementptr inbounds ([19 x i8], [19 x i8]* @str2, i32 0, i32 0), %class.anon* %13, %"class.std::vector"* %12), !dbg !44
  %17 = call i64 @_ZNKSt6vectorIiSaIiEE4sizeEv(%"class.std::vector"* %12), !dbg !45
  %18 = sitofp i64 %17 to double, !dbg !46
  %19 = call %"class.std::vector.1"* @_Z9get_indexv(), !dbg !47
  %20 = call i64 @_ZNKSt6vectorImSaImEE4sizeEv(%"class.std::vector.1"* %19), !dbg !48
  %21 = sitofp i64 %20 to double, !dbg !47
  %22 = fdiv double %18, %21, !dbg !49
  %23 = call i32 (i8*, ...) @printf(i8* getelementptr inbounds ([4 x i8], [4 x i8]* @str3, i32 0, i32 0), double %22), !dbg !50
  %24 = load %class.anon.6, %class.anon.6* %11, align 1, !dbg !39
  store %class.anon.6 %24, %class.anon.6* %10, align 1, !dbg !39
  call void @_ZNSt6vectorIiSaIiEEC1Ev(%"class.std::vector"* %9), !dbg !51
  call void @"_Z15get_data_by_selIciZ41calculate_distribution_store_and_fwd_flagvE3$_1EvPKcRT1_RSt6vectorIT0_SaIS6_EE"(i8* getelementptr inbounds ([19 x i8], [19 x i8]* @str2, i32 0, i32 0), %class.anon.6* %10, %"class.std::vector"* %9), !dbg !52
  call void @_ZNSt6vectorIiSaIiEEC1Ev(%"class.std::vector"* %8), !dbg !53
  %25 = call i64 @_ZNKSt6vectorIiSaIiEE4sizeEv(%"class.std::vector"* %9), !dbg !54
  br label %26, !dbg !55

26:                                               ; preds = %35, %0
  %27 = phi i64 [ 0, %0 ], [ %36, %35 ]
  %28 = icmp slt i64 %27, %25, !dbg !55
  br i1 %28, label %29, label %37, !dbg !55

29:                                               ; preds = %26
  %30 = call i32* @_ZNSt6vectorIiSaIiEEixEm(%"class.std::vector"* %9, i64 %27), !dbg !56
  %31 = load i32, i32* %30, align 4, !dbg !56
  store i32 %31, i32* %7, align 4, !dbg !36
  %32 = call i8 @_Z15step4_firstTimei(i32 %31), !dbg !57
  %33 = icmp ne i8 %32, 0, !dbg !58
  br i1 %33, label %34, label %35, !dbg !58

34:                                               ; preds = %29
  call void @_ZNSt6vectorIiSaIiEE9push_backERKi(%"class.std::vector"* %8, i32* %7), !dbg !59
  br label %35, !dbg !58

35:                                               ; preds = %34, %29
  %36 = add i64 %27, 1, !dbg !55
  br label %26, !dbg !55

37:                                               ; preds = %26
  %38 = call i32 (i8*, ...) @printf(i8* getelementptr inbounds ([2 x i8], [2 x i8]* @str4, i32 0, i32 0)), !dbg !60
  %39 = call %"class.__gnu_cxx::__normal_iterator" @_ZNSt6vectorIiSaIiEE5beginEv(%"class.std::vector"* %8), !dbg !34
  store %"class.__gnu_cxx::__normal_iterator" %39, %"class.__gnu_cxx::__normal_iterator"* %5, align 8, !dbg !34
  call void @_ZN9__gnu_cxx17__normal_iteratorIPiSt6vectorIiSaIiEEEC1EOS5_(%"class.__gnu_cxx::__normal_iterator"* %6, %"class.__gnu_cxx::__normal_iterator"* %5), !dbg !34
  %40 = load %"class.__gnu_cxx::__normal_iterator", %"class.__gnu_cxx::__normal_iterator"* %6, align 8, !dbg !34
  store %"class.__gnu_cxx::__normal_iterator" %40, %"class.__gnu_cxx::__normal_iterator"* %4, align 8, !dbg !34
  %41 = call %"class.__gnu_cxx::__normal_iterator" @_ZNSt6vectorIiSaIiEE3endEv(%"class.std::vector"* %8), !dbg !34
  store %"class.__gnu_cxx::__normal_iterator" %41, %"class.__gnu_cxx::__normal_iterator"* %2, align 8, !dbg !34
  call void @_ZN9__gnu_cxx17__normal_iteratorIPiSt6vectorIiSaIiEEEC1EOS5_(%"class.__gnu_cxx::__normal_iterator"* %3, %"class.__gnu_cxx::__normal_iterator"* %2), !dbg !34
  %42 = load %"class.__gnu_cxx::__normal_iterator", %"class.__gnu_cxx::__normal_iterator"* %3, align 8, !dbg !34
  store %"class.__gnu_cxx::__normal_iterator" %42, %"class.__gnu_cxx::__normal_iterator"* %1, align 8, !dbg !34
  br label %43, !dbg !34

43:                                               ; preds = %46, %37
  %44 = call i8 @_ZN9__gnu_cxxneIPiSt6vectorIiSaIiEEEEbRKNS_17__normal_iteratorIT_T0_EESA_(%"class.__gnu_cxx::__normal_iterator"* %4, %"class.__gnu_cxx::__normal_iterator"* %1), !dbg !34
  %45 = icmp ne i8 %44, 0, !dbg !61
  br i1 %45, label %46, label %51, !dbg !61

46:                                               ; preds = %43
  %47 = call i32* @_ZNK9__gnu_cxx17__normal_iteratorIPiSt6vectorIiSaIiEEEdeEv(%"class.__gnu_cxx::__normal_iterator"* %4), !dbg !34
  %48 = load i32, i32* %47, align 4, !dbg !62
  %49 = call i32 (i8*, ...) @printf(i8* getelementptr inbounds ([5 x i8], [5 x i8]* @str5, i32 0, i32 0), i32 %48), !dbg !63
  %50 = call %"class.__gnu_cxx::__normal_iterator"* @_ZN9__gnu_cxx17__normal_iteratorIPiSt6vectorIiSaIiEEEppEv(%"class.__gnu_cxx::__normal_iterator"* %4), !dbg !34
  br label %43, !dbg !61

51:                                               ; preds = %43
  %52 = call i32 (i8*, ...) @printf(i8* getelementptr inbounds ([4 x i8], [4 x i8]* @str6, i32 0, i32 0)), !dbg !64
  ret void, !dbg !65
}

define linkonce_odr i64 @_ZNKSt6chrono8durationIlSt5ratioILl1ELl1000000EEE5countEv(%"struct.std::chrono::duration.0"* %0) #1 !dbg !66 {
  %2 = getelementptr %"struct.std::chrono::duration.0", %"struct.std::chrono::duration.0"* %0, i32 0, i32 0, !dbg !67
  %3 = load i64, i64* %2, align 8, !dbg !67
  ret i64 %3, !dbg !69
}

define linkonce_odr %"struct.std::chrono::duration.0" @_ZNSt6chrono13duration_castINS_8durationIlSt5ratioILl1ELl1000000EEEElS2_ILl1ELl1000000000EEEENSt9enable_ifIXsr13__is_durationIT_EE5valueES7_E4typeERKNS1_IT0_T1_EE(%"struct.std::chrono::duration"* %0) #1 !dbg !70 {
  %2 = alloca %"struct.std::chrono::duration.0", i64 1, align 8
  %3 = alloca %"struct.std::chrono::duration.0", i64 1, align 8
  %4 = call %"struct.std::chrono::duration.0" @_ZNSt6chrono20__duration_cast_implINS_8durationIlSt5ratioILl1ELl1000000EEEES2_ILl1ELl1000EElLb1ELb0EE6__castIlS2_ILl1ELl1000000000EEEES4_RKNS1_IT_T0_EE(%"struct.std::chrono::duration"* %0), !dbg !71
  store %"struct.std::chrono::duration.0" %4, %"struct.std::chrono::duration.0"* %2, align 8, !dbg !71
  call void @_ZNSt6chrono8durationIlSt5ratioILl1ELl1000000EEEC1ERKS3_(%"struct.std::chrono::duration.0"* %3, %"struct.std::chrono::duration.0"* %2), !dbg !71
  %5 = load %"struct.std::chrono::duration.0", %"struct.std::chrono::duration.0"* %3, align 8, !dbg !73
  ret %"struct.std::chrono::duration.0" %5, !dbg !74
}

define linkonce_odr %"struct.std::chrono::duration" @_ZNSt6chronomiINS_3_V212steady_clockENS_8durationIlSt5ratioILl1ELl1000000000EEEES6_EENSt11common_typeIJT0_T1_EE4typeERKNS_10time_pointIT_S8_EERKNSC_ISD_S9_EE(%"struct.std::chrono::time_point"* %0, %"struct.std::chrono::time_point"* %1) #1 !dbg !75 {
  %3 = alloca %"struct.std::chrono::duration", i64 1, align 8
  %4 = alloca %"struct.std::chrono::duration", i64 1, align 8
  %5 = alloca %"struct.std::chrono::duration", i64 1, align 8
  %6 = alloca %"struct.std::chrono::duration", i64 1, align 8
  %7 = call %"struct.std::chrono::duration" @_ZNKSt6chrono10time_pointINS_3_V212steady_clockENS_8durationIlSt5ratioILl1ELl1000000000EEEEE16time_since_epochEv(%"struct.std::chrono::time_point"* %0), !dbg !76
  store %"struct.std::chrono::duration" %7, %"struct.std::chrono::duration"* %5, align 8, !dbg !78
  %8 = call %"struct.std::chrono::duration" @_ZNKSt6chrono10time_pointINS_3_V212steady_clockENS_8durationIlSt5ratioILl1ELl1000000000EEEEE16time_since_epochEv(%"struct.std::chrono::time_point"* %1), !dbg !79
  store %"struct.std::chrono::duration" %8, %"struct.std::chrono::duration"* %4, align 8, !dbg !80
  %9 = call %"struct.std::chrono::duration" @_ZNSt6chronomiIlSt5ratioILl1ELl1000000000EElS2_EENSt11common_typeIJNS_8durationIT_T0_EENS4_IT1_T2_EEEE4typeERKS7_RKSA_(%"struct.std::chrono::duration"* %5, %"struct.std::chrono::duration"* %4), !dbg !81
  store %"struct.std::chrono::duration" %9, %"struct.std::chrono::duration"* %3, align 8, !dbg !78
  call void @_ZNSt6chrono8durationIlSt5ratioILl1ELl1000000000EEEC1ERKS3_(%"struct.std::chrono::duration"* %6, %"struct.std::chrono::duration"* %3), !dbg !78
  %10 = load %"struct.std::chrono::duration", %"struct.std::chrono::duration"* %6, align 8, !dbg !82
  ret %"struct.std::chrono::duration" %10, !dbg !83
}

define linkonce_odr void @_ZNSt6chrono8durationIlSt5ratioILl1ELl1000000000EEEC1ERKS3_(%"struct.std::chrono::duration"* %0, %"struct.std::chrono::duration"* %1) #1 !dbg !84 {
  %3 = getelementptr %"struct.std::chrono::duration", %"struct.std::chrono::duration"* %1, i32 0, i32 0, !dbg !85
  %4 = load i64, i64* %3, align 8, !dbg !85
  %5 = getelementptr %"struct.std::chrono::duration", %"struct.std::chrono::duration"* %0, i32 0, i32 0, !dbg !85
  store i64 %4, i64* %5, align 8, !dbg !85
  ret void, !dbg !87
}

define linkonce_odr %"struct.std::chrono::duration" @_ZNSt6chrono8durationIlSt5ratioILl1ELl1000000000EEE4zeroEv() #1 !dbg !88 {
  %1 = alloca %"struct.std::chrono::duration", i64 1, align 8
  %2 = alloca i64, i64 1, align 8
  store i64 undef, i64* %2, align 8
  %3 = alloca %"struct.std::chrono::duration", i64 1, align 8
  %4 = alloca %"struct.std::chrono::duration", i64 1, align 8
  store i64 0, i64* %2, align 8, !dbg !89
  call void @_ZNSt6chrono8durationIlSt5ratioILl1ELl1000000000EEEC1IlvEERKT_(%"struct.std::chrono::duration"* %3, i64* %2), !dbg !91
  %5 = load %"struct.std::chrono::duration", %"struct.std::chrono::duration"* %3, align 8, !dbg !91
  store %"struct.std::chrono::duration" %5, %"struct.std::chrono::duration"* %1, align 8, !dbg !91
  call void @_ZNSt6chrono8durationIlSt5ratioILl1ELl1000000000EEEC1ERKS3_(%"struct.std::chrono::duration"* %4, %"struct.std::chrono::duration"* %1), !dbg !91
  %6 = load %"struct.std::chrono::duration", %"struct.std::chrono::duration"* %4, align 8, !dbg !92
  ret %"struct.std::chrono::duration" %6, !dbg !93
}

define linkonce_odr %"struct.std::chrono::duration"* @_ZNSt6chrono8durationIlSt5ratioILl1ELl1000000000EEEaSERKS3_(%"struct.std::chrono::duration"* %0, %"struct.std::chrono::duration"* %1) #1 !dbg !94 {
  %3 = getelementptr %"struct.std::chrono::duration", %"struct.std::chrono::duration"* %0, i32 0, i32 0, !dbg !95
  %4 = getelementptr %"struct.std::chrono::duration", %"struct.std::chrono::duration"* %1, i32 0, i32 0, !dbg !95
  %5 = load i64, i64* %4, align 8, !dbg !95
  store i64 %5, i64* %3, align 8, !dbg !95
  ret %"struct.std::chrono::duration"* %0, !dbg !95
}

define linkonce_odr void @_ZNSt6vectorIiSaIiEEC1Ev(%"class.std::vector"* %0) #1 !dbg !97 {
  %2 = getelementptr %"class.std::vector", %"class.std::vector"* %0, i32 0, i32 0, !dbg !99
  call void @_ZNSt12_Vector_baseIiSaIiEEC1Ev(%"struct.std::_Vector_base"* %2), !dbg !99
  ret void, !dbg !101
}

define internal void @"_Z15get_data_by_selIciZ41calculate_distribution_store_and_fwd_flagvE3$_0EvPKcRT1_RSt6vectorIT0_SaIS6_EE"(i8* %0, %class.anon* %1, %"class.std::vector"* %2) #1 !dbg !102 {
  %4 = alloca i64, i64 1, align 8, !dbg !103
  store i64 undef, i64* %4, align 8, !dbg !103
  %5 = alloca %"class.std::vector.1", i64 1, align 8, !dbg !105
  %6 = call %"class.std::vector.1"* @_Z9get_indexv(), !dbg !106
  %7 = call %"class.std::vector.8"* @_Z10get_columnIcERSt6vectorIT_SaIS1_EEPKc(i8* %0), !dbg !107
  %8 = call i64 @_ZNKSt6vectorImSaImEE4sizeEv(%"class.std::vector.1"* %6), !dbg !108
  %9 = call i64 @_ZNKSt6vectorIcSaIcEE4sizeEv(%"class.std::vector.8"* %7), !dbg !109
  call void @_ZNSt6vectorImSaImEEC1Ev(%"class.std::vector.1"* %5), !dbg !110
  call void @_ZNSt6vectorImSaImEE7reserveEm(%"class.std::vector.1"* %5, i64 %8), !dbg !111
  store i64 0, i64* %4, align 8, !dbg !103
  br label %10, !dbg !112

10:                                               ; preds = %21, %3
  %11 = phi i64 [ %23, %21 ], [ 0, %3 ]
  %12 = icmp slt i64 %11, %9, !dbg !112
  br i1 %12, label %13, label %24, !dbg !113

13:                                               ; preds = %10
  %14 = phi i64 [ %11, %10 ]
  %15 = call i64* @_ZNSt6vectorImSaImEEixEm(%"class.std::vector.1"* %6, i64 %14), !dbg !114
  %16 = load i64, i64* %4, align 8, !dbg !115
  %17 = call i8* @_ZNKSt6vectorIcSaIcEEixEm(%"class.std::vector.8"* %7, i64 %16), !dbg !116
  %18 = call i8 @"_ZZ41calculate_distribution_store_and_fwd_flagvENK3$_0clERKmRKc"(%class.anon* %1, i64* %15, i8* %17), !dbg !117
  %19 = icmp ne i8 %18, 0, !dbg !118
  br i1 %19, label %20, label %21, !dbg !118

20:                                               ; preds = %13
  call void @_ZNSt6vectorImSaImEE9push_backERKm(%"class.std::vector.1"* %5, i64* %4), !dbg !119
  br label %21, !dbg !118

21:                                               ; preds = %20, %13
  %22 = load i64, i64* %4, align 8, !dbg !120
  %23 = add i64 %22, 1, !dbg !120
  store i64 %23, i64* %4, align 8, !dbg !120
  br label %10, !dbg !113

24:                                               ; preds = %10
  %25 = call %"class.std::vector"* @_Z10get_columnIiERSt6vectorIT_SaIS1_EEPKc(i8* getelementptr inbounds ([9 x i8], [9 x i8]* @str7, i32 0, i32 0)), !dbg !121
  call void @_Z8sel_loadIiEvRSt6vectorImSaImEERKS0_IT_SaIS4_EERS6_(%"class.std::vector.1"* %5, %"class.std::vector"* %25, %"class.std::vector"* %2), !dbg !122
  ret void, !dbg !123
}

define linkonce_odr i64 @_ZNKSt6vectorIiSaIiEE4sizeEv(%"class.std::vector"* %0) #1 !dbg !124 {
  %2 = getelementptr %"class.std::vector", %"class.std::vector"* %0, i32 0, i32 0, !dbg !125
  %3 = getelementptr %"struct.std::_Vector_base", %"struct.std::_Vector_base"* %2, i32 0, i32 0, !dbg !127
  %4 = getelementptr %"struct.std::_Vector_base<int, std::allocator<int>>::_Vector_impl", %"struct.std::_Vector_base<int, std::allocator<int>>::_Vector_impl"* %3, i32 0, i32 0, !dbg !125
  %5 = getelementptr %"struct.std::_Vector_base<int, std::allocator<int>>::_Vector_impl_data", %"struct.std::_Vector_base<int, std::allocator<int>>::_Vector_impl_data"* %4, i32 0, i32 1, !dbg !128
  %6 = load i32*, i32** %5, align 8, !dbg !125
  %7 = getelementptr %"struct.std::_Vector_base<int, std::allocator<int>>::_Vector_impl_data", %"struct.std::_Vector_base<int, std::allocator<int>>::_Vector_impl_data"* %4, i32 0, i32 0, !dbg !129
  %8 = load i32*, i32** %7, align 8, !dbg !130
  %9 = ptrtoint i32* %8 to i64, !dbg !131
  %10 = ptrtoint i32* %6 to i64, !dbg !131
  %11 = sub i64 %10, %9, !dbg !131
  %12 = sdiv i64 %11, 4, !dbg !131
  ret i64 %12, !dbg !132
}

define linkonce_odr i64 @_ZNKSt6vectorImSaImEE4sizeEv(%"class.std::vector.1"* %0) #1 !dbg !133 {
  %2 = getelementptr %"class.std::vector.1", %"class.std::vector.1"* %0, i32 0, i32 0, !dbg !134
  %3 = getelementptr %"struct.std::_Vector_base.2", %"struct.std::_Vector_base.2"* %2, i32 0, i32 0, !dbg !136
  %4 = getelementptr %"struct.std::_Vector_base<unsigned long, std::allocator<unsigned long>>::_Vector_impl", %"struct.std::_Vector_base<unsigned long, std::allocator<unsigned long>>::_Vector_impl"* %3, i32 0, i32 0, !dbg !134
  %5 = getelementptr %"struct.std::_Vector_base<unsigned long, std::allocator<unsigned long>>::_Vector_impl_data", %"struct.std::_Vector_base<unsigned long, std::allocator<unsigned long>>::_Vector_impl_data"* %4, i32 0, i32 1, !dbg !137
  %6 = load i64*, i64** %5, align 8, !dbg !134
  %7 = getelementptr %"struct.std::_Vector_base<unsigned long, std::allocator<unsigned long>>::_Vector_impl_data", %"struct.std::_Vector_base<unsigned long, std::allocator<unsigned long>>::_Vector_impl_data"* %4, i32 0, i32 0, !dbg !138
  %8 = load i64*, i64** %7, align 8, !dbg !139
  %9 = ptrtoint i64* %8 to i64, !dbg !140
  %10 = ptrtoint i64* %6 to i64, !dbg !140
  %11 = sub i64 %10, %9, !dbg !140
  %12 = sdiv i64 %11, 8, !dbg !140
  ret i64 %12, !dbg !141
}

declare %"class.std::vector.1"* @_Z9get_indexv() #1

define internal void @"_Z15get_data_by_selIciZ41calculate_distribution_store_and_fwd_flagvE3$_1EvPKcRT1_RSt6vectorIT0_SaIS6_EE"(i8* %0, %class.anon.6* %1, %"class.std::vector"* %2) #1 !dbg !142 {
  %4 = alloca i64, i64 1, align 8, !dbg !143
  store i64 undef, i64* %4, align 8, !dbg !143
  %5 = alloca %"class.std::vector.1", i64 1, align 8, !dbg !145
  %6 = call %"class.std::vector.1"* @_Z9get_indexv(), !dbg !146
  %7 = call %"class.std::vector.8"* @_Z10get_columnIcERSt6vectorIT_SaIS1_EEPKc(i8* %0), !dbg !147
  %8 = call i64 @_ZNKSt6vectorImSaImEE4sizeEv(%"class.std::vector.1"* %6), !dbg !148
  %9 = call i64 @_ZNKSt6vectorIcSaIcEE4sizeEv(%"class.std::vector.8"* %7), !dbg !149
  call void @_ZNSt6vectorImSaImEEC1Ev(%"class.std::vector.1"* %5), !dbg !150
  call void @_ZNSt6vectorImSaImEE7reserveEm(%"class.std::vector.1"* %5, i64 %8), !dbg !151
  store i64 0, i64* %4, align 8, !dbg !143
  br label %10, !dbg !152

10:                                               ; preds = %21, %3
  %11 = phi i64 [ %23, %21 ], [ 0, %3 ]
  %12 = icmp slt i64 %11, %9, !dbg !152
  br i1 %12, label %13, label %24, !dbg !153

13:                                               ; preds = %10
  %14 = phi i64 [ %11, %10 ]
  %15 = call i64* @_ZNSt6vectorImSaImEEixEm(%"class.std::vector.1"* %6, i64 %14), !dbg !154
  %16 = load i64, i64* %4, align 8, !dbg !155
  %17 = call i8* @_ZNKSt6vectorIcSaIcEEixEm(%"class.std::vector.8"* %7, i64 %16), !dbg !156
  %18 = call i8 @"_ZZ41calculate_distribution_store_and_fwd_flagvENK3$_1clERKmRKc"(%class.anon.6* %1, i64* %15, i8* %17), !dbg !157
  %19 = icmp ne i8 %18, 0, !dbg !158
  br i1 %19, label %20, label %21, !dbg !158

20:                                               ; preds = %13
  call void @_ZNSt6vectorImSaImEE9push_backERKm(%"class.std::vector.1"* %5, i64* %4), !dbg !159
  br label %21, !dbg !158

21:                                               ; preds = %20, %13
  %22 = load i64, i64* %4, align 8, !dbg !160
  %23 = add i64 %22, 1, !dbg !160
  store i64 %23, i64* %4, align 8, !dbg !160
  br label %10, !dbg !153

24:                                               ; preds = %10
  %25 = call %"class.std::vector"* @_Z10get_columnIiERSt6vectorIT_SaIS1_EEPKc(i8* getelementptr inbounds ([9 x i8], [9 x i8]* @str7, i32 0, i32 0)), !dbg !161
  call void @_Z8sel_loadIiEvRSt6vectorImSaImEERKS0_IT_SaIS4_EERS6_(%"class.std::vector.1"* %5, %"class.std::vector"* %25, %"class.std::vector"* %2), !dbg !162
  ret void, !dbg !163
}

define linkonce_odr i32* @_ZNSt6vectorIiSaIiEEixEm(%"class.std::vector"* %0, i64 %1) #1 !dbg !164 {
  %3 = getelementptr %"class.std::vector", %"class.std::vector"* %0, i32 0, i32 0, !dbg !165
  %4 = getelementptr %"struct.std::_Vector_base", %"struct.std::_Vector_base"* %3, i32 0, i32 0, !dbg !167
  %5 = getelementptr %"struct.std::_Vector_base<int, std::allocator<int>>::_Vector_impl", %"struct.std::_Vector_base<int, std::allocator<int>>::_Vector_impl"* %4, i32 0, i32 0, !dbg !165
  %6 = getelementptr %"struct.std::_Vector_base<int, std::allocator<int>>::_Vector_impl_data", %"struct.std::_Vector_base<int, std::allocator<int>>::_Vector_impl_data"* %5, i32 0, i32 0, !dbg !168
  %7 = load i32*, i32** %6, align 8, !dbg !165
  %8 = getelementptr i32, i32* %7, i64 %1, !dbg !169
  ret i32* %8, !dbg !170
}

declare i8 @_Z15step4_firstTimei(i32) #1

define linkonce_odr void @_ZNSt6vectorIiSaIiEE9push_backERKi(%"class.std::vector"* %0, i32* %1) #1 !dbg !171 {
  %3 = alloca %"class.__gnu_cxx::__normal_iterator", i64 1, align 8
  %4 = alloca %"class.__gnu_cxx::__normal_iterator", i64 1, align 8
  %5 = getelementptr %"class.std::vector", %"class.std::vector"* %0, i32 0, i32 0, !dbg !172
  %6 = getelementptr %"struct.std::_Vector_base", %"struct.std::_Vector_base"* %5, i32 0, i32 0, !dbg !174
  %7 = getelementptr %"struct.std::_Vector_base<int, std::allocator<int>>::_Vector_impl", %"struct.std::_Vector_base<int, std::allocator<int>>::_Vector_impl"* %6, i32 0, i32 0, !dbg !172
  %8 = getelementptr %"struct.std::_Vector_base<int, std::allocator<int>>::_Vector_impl_data", %"struct.std::_Vector_base<int, std::allocator<int>>::_Vector_impl_data"* %7, i32 0, i32 1, !dbg !175
  %9 = load i32*, i32** %8, align 8, !dbg !172
  %10 = getelementptr %"struct.std::_Vector_base<int, std::allocator<int>>::_Vector_impl_data", %"struct.std::_Vector_base<int, std::allocator<int>>::_Vector_impl_data"* %7, i32 0, i32 2, !dbg !176
  %11 = load i32*, i32** %10, align 8, !dbg !177
  %12 = icmp ne i32* %9, %11, !dbg !178
  br i1 %12, label %13, label %20, !dbg !179

13:                                               ; preds = %2
  %14 = bitcast %"struct.std::_Vector_base<int, std::allocator<int>>::_Vector_impl"* %6 to %"class.std::allocator"*, !dbg !180
  %15 = icmp ne %"class.std::allocator"* %14, null, !dbg !180
  %16 = select i1 %15, %"class.std::allocator"* %14, %"class.std::allocator"* null, !dbg !180
  %17 = load i32*, i32** %8, align 8, !dbg !181
  call void @_ZNSt16allocator_traitsISaIiEE9constructIiJRKiEEEvRS0_PT_DpOT0_(%"class.std::allocator"* %16, i32* %17, i32* %1), !dbg !182
  %18 = load i32*, i32** %8, align 8, !dbg !183
  %19 = getelementptr i32, i32* %18, i32 1, !dbg !183
  store i32* %19, i32** %8, align 8, !dbg !183
  br label %23, !dbg !179

20:                                               ; preds = %2
  %21 = call %"class.__gnu_cxx::__normal_iterator" @_ZNSt6vectorIiSaIiEE3endEv(%"class.std::vector"* %0), !dbg !184
  store %"class.__gnu_cxx::__normal_iterator" %21, %"class.__gnu_cxx::__normal_iterator"* %3, align 8, !dbg !184
  call void @_ZN9__gnu_cxx17__normal_iteratorIPiSt6vectorIiSaIiEEEC1EOS5_(%"class.__gnu_cxx::__normal_iterator"* %4, %"class.__gnu_cxx::__normal_iterator"* %3), !dbg !184
  %22 = load %"class.__gnu_cxx::__normal_iterator", %"class.__gnu_cxx::__normal_iterator"* %4, align 8, !dbg !185
  call void @_ZNSt6vectorIiSaIiEE17_M_realloc_insertIJRKiEEEvN9__gnu_cxx17__normal_iteratorIPiS1_EEDpOT_(%"class.std::vector"* %0, %"class.__gnu_cxx::__normal_iterator" %22, i32* %1), !dbg !185
  br label %23, !dbg !179

23:                                               ; preds = %13, %20
  ret void, !dbg !186
}

define linkonce_odr void @_ZN9__gnu_cxx17__normal_iteratorIPiSt6vectorIiSaIiEEEC1EOS5_(%"class.__gnu_cxx::__normal_iterator"* %0, %"class.__gnu_cxx::__normal_iterator"* %1) #1 !dbg !187 {
  %3 = getelementptr %"class.__gnu_cxx::__normal_iterator", %"class.__gnu_cxx::__normal_iterator"* %1, i32 0, i32 0, !dbg !189
  %4 = load i32*, i32** %3, align 8, !dbg !189
  %5 = getelementptr %"class.__gnu_cxx::__normal_iterator", %"class.__gnu_cxx::__normal_iterator"* %0, i32 0, i32 0, !dbg !189
  store i32* %4, i32** %5, align 8, !dbg !189
  ret void, !dbg !189
}

define linkonce_odr %"class.__gnu_cxx::__normal_iterator" @_ZNSt6vectorIiSaIiEE5beginEv(%"class.std::vector"* %0) #1 !dbg !191 {
  %2 = alloca %"class.__gnu_cxx::__normal_iterator", i64 1, align 8
  %3 = alloca %"class.__gnu_cxx::__normal_iterator", i64 1, align 8
  %4 = alloca %"class.__gnu_cxx::__normal_iterator", i64 1, align 8
  %5 = getelementptr %"class.std::vector", %"class.std::vector"* %0, i32 0, i32 0, !dbg !192
  %6 = getelementptr %"struct.std::_Vector_base", %"struct.std::_Vector_base"* %5, i32 0, i32 0, !dbg !194
  %7 = getelementptr %"struct.std::_Vector_base<int, std::allocator<int>>::_Vector_impl", %"struct.std::_Vector_base<int, std::allocator<int>>::_Vector_impl"* %6, i32 0, i32 0, !dbg !192
  %8 = getelementptr %"struct.std::_Vector_base<int, std::allocator<int>>::_Vector_impl_data", %"struct.std::_Vector_base<int, std::allocator<int>>::_Vector_impl_data"* %7, i32 0, i32 0, !dbg !195
  call void @_ZN9__gnu_cxx17__normal_iteratorIPiSt6vectorIiSaIiEEEC1ERKS1_(%"class.__gnu_cxx::__normal_iterator"* %3, i32** %8), !dbg !196
  %9 = load %"class.__gnu_cxx::__normal_iterator", %"class.__gnu_cxx::__normal_iterator"* %3, align 8, !dbg !196
  store %"class.__gnu_cxx::__normal_iterator" %9, %"class.__gnu_cxx::__normal_iterator"* %2, align 8, !dbg !196
  call void @_ZN9__gnu_cxx17__normal_iteratorIPiSt6vectorIiSaIiEEEC1EOS5_(%"class.__gnu_cxx::__normal_iterator"* %4, %"class.__gnu_cxx::__normal_iterator"* %2), !dbg !196
  %10 = load %"class.__gnu_cxx::__normal_iterator", %"class.__gnu_cxx::__normal_iterator"* %4, align 8, !dbg !197
  ret %"class.__gnu_cxx::__normal_iterator" %10, !dbg !198
}

define linkonce_odr %"class.__gnu_cxx::__normal_iterator" @_ZNSt6vectorIiSaIiEE3endEv(%"class.std::vector"* %0) #1 !dbg !199 {
  %2 = alloca %"class.__gnu_cxx::__normal_iterator", i64 1, align 8
  %3 = alloca %"class.__gnu_cxx::__normal_iterator", i64 1, align 8
  %4 = alloca %"class.__gnu_cxx::__normal_iterator", i64 1, align 8
  %5 = getelementptr %"class.std::vector", %"class.std::vector"* %0, i32 0, i32 0, !dbg !200
  %6 = getelementptr %"struct.std::_Vector_base", %"struct.std::_Vector_base"* %5, i32 0, i32 0, !dbg !202
  %7 = getelementptr %"struct.std::_Vector_base<int, std::allocator<int>>::_Vector_impl", %"struct.std::_Vector_base<int, std::allocator<int>>::_Vector_impl"* %6, i32 0, i32 0, !dbg !200
  %8 = getelementptr %"struct.std::_Vector_base<int, std::allocator<int>>::_Vector_impl_data", %"struct.std::_Vector_base<int, std::allocator<int>>::_Vector_impl_data"* %7, i32 0, i32 1, !dbg !203
  call void @_ZN9__gnu_cxx17__normal_iteratorIPiSt6vectorIiSaIiEEEC1ERKS1_(%"class.__gnu_cxx::__normal_iterator"* %3, i32** %8), !dbg !204
  %9 = load %"class.__gnu_cxx::__normal_iterator", %"class.__gnu_cxx::__normal_iterator"* %3, align 8, !dbg !204
  store %"class.__gnu_cxx::__normal_iterator" %9, %"class.__gnu_cxx::__normal_iterator"* %2, align 8, !dbg !204
  call void @_ZN9__gnu_cxx17__normal_iteratorIPiSt6vectorIiSaIiEEEC1EOS5_(%"class.__gnu_cxx::__normal_iterator"* %4, %"class.__gnu_cxx::__normal_iterator"* %2), !dbg !204
  %10 = load %"class.__gnu_cxx::__normal_iterator", %"class.__gnu_cxx::__normal_iterator"* %4, align 8, !dbg !205
  ret %"class.__gnu_cxx::__normal_iterator" %10, !dbg !206
}

define linkonce_odr i8 @_ZN9__gnu_cxxneIPiSt6vectorIiSaIiEEEEbRKNS_17__normal_iteratorIT_T0_EESA_(%"class.__gnu_cxx::__normal_iterator"* %0, %"class.__gnu_cxx::__normal_iterator"* %1) #1 !dbg !207 {
  %3 = call i32** @_ZNK9__gnu_cxx17__normal_iteratorIPiSt6vectorIiSaIiEEE4baseEv(%"class.__gnu_cxx::__normal_iterator"* %0), !dbg !208
  %4 = load i32*, i32** %3, align 8, !dbg !210
  %5 = call i32** @_ZNK9__gnu_cxx17__normal_iteratorIPiSt6vectorIiSaIiEEE4baseEv(%"class.__gnu_cxx::__normal_iterator"* %1), !dbg !211
  %6 = load i32*, i32** %5, align 8, !dbg !212
  %7 = icmp ne i32* %4, %6, !dbg !213
  %8 = zext i1 %7 to i8, !dbg !213
  ret i8 %8, !dbg !214
}

define linkonce_odr i32* @_ZNK9__gnu_cxx17__normal_iteratorIPiSt6vectorIiSaIiEEEdeEv(%"class.__gnu_cxx::__normal_iterator"* %0) #1 !dbg !215 {
  %2 = getelementptr %"class.__gnu_cxx::__normal_iterator", %"class.__gnu_cxx::__normal_iterator"* %0, i32 0, i32 0, !dbg !216
  %3 = load i32*, i32** %2, align 8, !dbg !216
  ret i32* %3, !dbg !218
}

define linkonce_odr %"class.__gnu_cxx::__normal_iterator"* @_ZN9__gnu_cxx17__normal_iteratorIPiSt6vectorIiSaIiEEEppEv(%"class.__gnu_cxx::__normal_iterator"* %0) #1 !dbg !219 {
  %2 = getelementptr %"class.__gnu_cxx::__normal_iterator", %"class.__gnu_cxx::__normal_iterator"* %0, i32 0, i32 0, !dbg !220
  %3 = load i32*, i32** %2, align 8, !dbg !222
  %4 = getelementptr i32, i32* %3, i32 1, !dbg !222
  store i32* %4, i32** %2, align 8, !dbg !222
  ret %"class.__gnu_cxx::__normal_iterator"* %0, !dbg !223
}

define linkonce_odr void @_ZNSt6chrono8durationIlSt5ratioILl1ELl1000000EEEC1ERKS3_(%"struct.std::chrono::duration.0"* %0, %"struct.std::chrono::duration.0"* %1) #1 !dbg !224 {
  %3 = getelementptr %"struct.std::chrono::duration.0", %"struct.std::chrono::duration.0"* %1, i32 0, i32 0, !dbg !225
  %4 = load i64, i64* %3, align 8, !dbg !225
  %5 = getelementptr %"struct.std::chrono::duration.0", %"struct.std::chrono::duration.0"* %0, i32 0, i32 0, !dbg !225
  store i64 %4, i64* %5, align 8, !dbg !225
  ret void, !dbg !227
}

define linkonce_odr %"struct.std::chrono::duration.0" @_ZNSt6chrono20__duration_cast_implINS_8durationIlSt5ratioILl1ELl1000000EEEES2_ILl1ELl1000EElLb1ELb0EE6__castIlS2_ILl1ELl1000000000EEEES4_RKNS1_IT_T0_EE(%"struct.std::chrono::duration"* %0) #1 !dbg !228 {
  %2 = alloca %"struct.std::chrono::duration.0", i64 1, align 8
  %3 = alloca i64, i64 1, align 8
  store i64 undef, i64* %3, align 8
  %4 = alloca %"struct.std::chrono::duration.0", i64 1, align 8
  %5 = alloca %"struct.std::chrono::duration.0", i64 1, align 8
  %6 = call i64 @_ZNKSt6chrono8durationIlSt5ratioILl1ELl1000000000EEE5countEv(%"struct.std::chrono::duration"* %0), !dbg !229
  %7 = sdiv i64 %6, 1000, !dbg !231
  store i64 %7, i64* %3, align 8, !dbg !232
  call void @_ZNSt6chrono8durationIlSt5ratioILl1ELl1000000EEEC1IlvEERKT_(%"struct.std::chrono::duration.0"* %4, i64* %3), !dbg !233
  %8 = load %"struct.std::chrono::duration.0", %"struct.std::chrono::duration.0"* %4, align 8, !dbg !233
  store %"struct.std::chrono::duration.0" %8, %"struct.std::chrono::duration.0"* %2, align 8, !dbg !233
  call void @_ZNSt6chrono8durationIlSt5ratioILl1ELl1000000EEEC1ERKS3_(%"struct.std::chrono::duration.0"* %5, %"struct.std::chrono::duration.0"* %2), !dbg !233
  %9 = load %"struct.std::chrono::duration.0", %"struct.std::chrono::duration.0"* %5, align 8, !dbg !234
  ret %"struct.std::chrono::duration.0" %9, !dbg !235
}

define linkonce_odr %"struct.std::chrono::duration" @_ZNSt6chronomiIlSt5ratioILl1ELl1000000000EElS2_EENSt11common_typeIJNS_8durationIT_T0_EENS4_IT1_T2_EEEE4typeERKS7_RKSA_(%"struct.std::chrono::duration"* %0, %"struct.std::chrono::duration"* %1) #1 !dbg !236 {
  %3 = alloca %"struct.std::chrono::duration", i64 1, align 8
  %4 = alloca i64, i64 1, align 8
  store i64 undef, i64* %4, align 8
  %5 = alloca %"struct.std::chrono::duration", i64 1, align 8
  %6 = alloca %"struct.std::chrono::duration", i64 1, align 8
  %7 = alloca %"struct.std::chrono::duration", i64 1, align 8
  %8 = alloca %"struct.std::chrono::duration", i64 1, align 8
  %9 = alloca %"struct.std::chrono::duration", i64 1, align 8
  %10 = alloca %"struct.std::chrono::duration", i64 1, align 8
  call void @_ZNSt6chrono8durationIlSt5ratioILl1ELl1000000000EEEC1ERKS3_(%"struct.std::chrono::duration"* %8, %"struct.std::chrono::duration"* %0), !dbg !237
  %11 = load %"struct.std::chrono::duration", %"struct.std::chrono::duration"* %8, align 8, !dbg !237
  store %"struct.std::chrono::duration" %11, %"struct.std::chrono::duration"* %7, align 8, !dbg !237
  %12 = call i64 @_ZNKSt6chrono8durationIlSt5ratioILl1ELl1000000000EEE5countEv(%"struct.std::chrono::duration"* %7), !dbg !239
  call void @_ZNSt6chrono8durationIlSt5ratioILl1ELl1000000000EEEC1ERKS3_(%"struct.std::chrono::duration"* %6, %"struct.std::chrono::duration"* %1), !dbg !240
  %13 = load %"struct.std::chrono::duration", %"struct.std::chrono::duration"* %6, align 8, !dbg !240
  store %"struct.std::chrono::duration" %13, %"struct.std::chrono::duration"* %5, align 8, !dbg !240
  %14 = call i64 @_ZNKSt6chrono8durationIlSt5ratioILl1ELl1000000000EEE5countEv(%"struct.std::chrono::duration"* %5), !dbg !241
  %15 = sub i64 %12, %14, !dbg !242
  store i64 %15, i64* %4, align 8, !dbg !237
  call void @_ZNSt6chrono8durationIlSt5ratioILl1ELl1000000000EEEC1IlvEERKT_(%"struct.std::chrono::duration"* %9, i64* %4), !dbg !243
  %16 = load %"struct.std::chrono::duration", %"struct.std::chrono::duration"* %9, align 8, !dbg !243
  store %"struct.std::chrono::duration" %16, %"struct.std::chrono::duration"* %3, align 8, !dbg !243
  call void @_ZNSt6chrono8durationIlSt5ratioILl1ELl1000000000EEEC1ERKS3_(%"struct.std::chrono::duration"* %10, %"struct.std::chrono::duration"* %3), !dbg !243
  %17 = load %"struct.std::chrono::duration", %"struct.std::chrono::duration"* %10, align 8, !dbg !244
  ret %"struct.std::chrono::duration" %17, !dbg !245
}

define linkonce_odr %"struct.std::chrono::duration" @_ZNKSt6chrono10time_pointINS_3_V212steady_clockENS_8durationIlSt5ratioILl1ELl1000000000EEEEE16time_since_epochEv(%"struct.std::chrono::time_point"* %0) #1 !dbg !246 {
  %2 = alloca %"struct.std::chrono::duration", i64 1, align 8
  %3 = getelementptr %"struct.std::chrono::time_point", %"struct.std::chrono::time_point"* %0, i32 0, i32 0, !dbg !247
  call void @_ZNSt6chrono8durationIlSt5ratioILl1ELl1000000000EEEC1ERKS3_(%"struct.std::chrono::duration"* %2, %"struct.std::chrono::duration"* %3), !dbg !247
  %4 = load %"struct.std::chrono::duration", %"struct.std::chrono::duration"* %2, align 8, !dbg !249
  ret %"struct.std::chrono::duration" %4, !dbg !250
}

define linkonce_odr void @_ZNSt6chrono8durationIlSt5ratioILl1ELl1000000000EEEC1IlvEERKT_(%"struct.std::chrono::duration"* %0, i64* %1) #1 !dbg !251 {
  %3 = load i64, i64* %1, align 8, !dbg !252
  %4 = getelementptr %"struct.std::chrono::duration", %"struct.std::chrono::duration"* %0, i32 0, i32 0, !dbg !254
  store i64 %3, i64* %4, align 8, !dbg !254
  ret void, !dbg !255
}

define linkonce_odr i64 @_ZNSt6chrono15duration_valuesIlE4zeroEv() #1 !dbg !256 {
  ret i64 0, !dbg !257
}

define linkonce_odr void @_ZNSt12_Vector_baseIiSaIiEEC1Ev(%"struct.std::_Vector_base"* %0) #1 !dbg !259 {
  %2 = getelementptr %"struct.std::_Vector_base", %"struct.std::_Vector_base"* %0, i32 0, i32 0, !dbg !260
  call void @_ZNSt12_Vector_baseIiSaIiEE12_Vector_implC1Ev(%"struct.std::_Vector_base<int, std::allocator<int>>::_Vector_impl"* %2), !dbg !260
  ret void, !dbg !262
}

declare %"class.std::vector.8"* @_Z10get_columnIcERSt6vectorIT_SaIS1_EEPKc(i8*) #1

define linkonce_odr i64 @_ZNKSt6vectorIcSaIcEE4sizeEv(%"class.std::vector.8"* %0) #1 !dbg !263 {
  %2 = getelementptr %"class.std::vector.8", %"class.std::vector.8"* %0, i32 0, i32 0, !dbg !264
  %3 = getelementptr %"struct.std::_Vector_base.9", %"struct.std::_Vector_base.9"* %2, i32 0, i32 0, !dbg !266
  %4 = getelementptr %"struct.std::_Vector_base<char, std::allocator<char>>::_Vector_impl", %"struct.std::_Vector_base<char, std::allocator<char>>::_Vector_impl"* %3, i32 0, i32 0, !dbg !264
  %5 = getelementptr %"struct.std::_Vector_base<char, std::allocator<char>>::_Vector_impl_data", %"struct.std::_Vector_base<char, std::allocator<char>>::_Vector_impl_data"* %4, i32 0, i32 1, !dbg !267
  %6 = load i8*, i8** %5, align 8, !dbg !264
  %7 = getelementptr %"struct.std::_Vector_base<char, std::allocator<char>>::_Vector_impl_data", %"struct.std::_Vector_base<char, std::allocator<char>>::_Vector_impl_data"* %4, i32 0, i32 0, !dbg !268
  %8 = load i8*, i8** %7, align 8, !dbg !269
  %9 = ptrtoint i8* %8 to i64, !dbg !270
  %10 = ptrtoint i8* %6 to i64, !dbg !270
  %11 = sub i64 %10, %9, !dbg !270
  ret i64 %11, !dbg !271
}

define linkonce_odr void @_ZNSt6vectorImSaImEEC1Ev(%"class.std::vector.1"* %0) #1 !dbg !272 {
  %2 = getelementptr %"class.std::vector.1", %"class.std::vector.1"* %0, i32 0, i32 0, !dbg !273
  call void @_ZNSt12_Vector_baseImSaImEEC1Ev(%"struct.std::_Vector_base.2"* %2), !dbg !273
  ret void, !dbg !275
}

define linkonce_odr void @_ZNSt6vectorImSaImEE7reserveEm(%"class.std::vector.1"* %0, i64 %1) #1 !dbg !276 {
  %3 = alloca %"class.std::move_iterator", i64 1, align 8
  %4 = alloca %"class.std::move_iterator", i64 1, align 8
  %5 = alloca %"class.std::move_iterator", i64 1, align 8
  %6 = alloca %"class.std::move_iterator", i64 1, align 8
  %7 = call i64 @_ZNKSt6vectorImSaImEE8max_sizeEv(%"class.std::vector.1"* %0), !dbg !277
  %8 = icmp sgt i64 %1, %7, !dbg !280
  br i1 %8, label %9, label %10, !dbg !281

9:                                                ; preds = %2
  call void @_ZSt20__throw_length_errorPKc(i8* getelementptr inbounds ([16 x i8], [16 x i8]* @str8, i32 0, i32 0)), !dbg !282
  br label %10, !dbg !281

10:                                               ; preds = %9, %2
  %11 = call i64 @_ZNKSt6vectorImSaImEE8capacityEv(%"class.std::vector.1"* %0), !dbg !283
  %12 = icmp slt i64 %11, %1, !dbg !284
  br i1 %12, label %13, label %60, !dbg !285

13:                                               ; preds = %10
  %14 = call i64 @_ZNKSt6vectorImSaImEE4sizeEv(%"class.std::vector.1"* %0), !dbg !286
  %15 = call i8 @_ZNSt6vectorImSaImEE15_S_use_relocateEv(), !dbg !287
  %16 = icmp ne i8 %15, 0, !dbg !288
  br i1 %16, label %17, label %28, !dbg !288

17:                                               ; preds = %13
  %18 = getelementptr %"class.std::vector.1", %"class.std::vector.1"* %0, i32 0, i32 0, !dbg !289
  %19 = call i64* @_ZNSt12_Vector_baseImSaImEE11_M_allocateEm(%"struct.std::_Vector_base.2"* %18, i64 %1), !dbg !290
  %20 = getelementptr %"struct.std::_Vector_base.2", %"struct.std::_Vector_base.2"* %18, i32 0, i32 0, !dbg !291
  %21 = getelementptr %"struct.std::_Vector_base<unsigned long, std::allocator<unsigned long>>::_Vector_impl", %"struct.std::_Vector_base<unsigned long, std::allocator<unsigned long>>::_Vector_impl"* %20, i32 0, i32 0, !dbg !292
  %22 = getelementptr %"struct.std::_Vector_base<unsigned long, std::allocator<unsigned long>>::_Vector_impl_data", %"struct.std::_Vector_base<unsigned long, std::allocator<unsigned long>>::_Vector_impl_data"* %21, i32 0, i32 0, !dbg !293
  %23 = load i64*, i64** %22, align 8, !dbg !292
  %24 = getelementptr %"struct.std::_Vector_base<unsigned long, std::allocator<unsigned long>>::_Vector_impl_data", %"struct.std::_Vector_base<unsigned long, std::allocator<unsigned long>>::_Vector_impl_data"* %21, i32 0, i32 1, !dbg !294
  %25 = load i64*, i64** %24, align 8, !dbg !295
  %26 = call %"class.std::allocator.3"* @_ZNSt12_Vector_baseImSaImEE19_M_get_Tp_allocatorEv(%"struct.std::_Vector_base.2"* %18), !dbg !296
  %27 = call i64* @_ZSt14__relocate_a_1ImmENSt9enable_ifIXsr3std24__is_bitwise_relocatableIT_EE5valueEPS1_E4typeES2_S2_S2_RSaIT0_E(i64* %23, i64* %25, i64* %19, %"class.std::allocator.3"* %26), !dbg !297
  br label %42, !dbg !288

28:                                               ; preds = %13
  %29 = getelementptr %"class.std::vector.1", %"class.std::vector.1"* %0, i32 0, i32 0, !dbg !304
  %30 = getelementptr %"struct.std::_Vector_base.2", %"struct.std::_Vector_base.2"* %29, i32 0, i32 0, !dbg !305
  %31 = getelementptr %"struct.std::_Vector_base<unsigned long, std::allocator<unsigned long>>::_Vector_impl", %"struct.std::_Vector_base<unsigned long, std::allocator<unsigned long>>::_Vector_impl"* %30, i32 0, i32 0, !dbg !304
  %32 = getelementptr %"struct.std::_Vector_base<unsigned long, std::allocator<unsigned long>>::_Vector_impl_data", %"struct.std::_Vector_base<unsigned long, std::allocator<unsigned long>>::_Vector_impl_data"* %31, i32 0, i32 0, !dbg !306
  %33 = load i64*, i64** %32, align 8, !dbg !304
  %34 = call %"class.std::move_iterator" @_ZSt32__make_move_if_noexcept_iteratorImSt13move_iteratorIPmEET0_PT_(i64* %33), !dbg !307
  store %"class.std::move_iterator" %34, %"class.std::move_iterator"* %5, align 8, !dbg !307
  call void @_ZNSt13move_iteratorIPmEC1EOS1_(%"class.std::move_iterator"* %6, %"class.std::move_iterator"* %5), !dbg !307
  %35 = getelementptr %"struct.std::_Vector_base<unsigned long, std::allocator<unsigned long>>::_Vector_impl_data", %"struct.std::_Vector_base<unsigned long, std::allocator<unsigned long>>::_Vector_impl_data"* %31, i32 0, i32 1, !dbg !309
  %36 = load i64*, i64** %35, align 8, !dbg !310
  %37 = call %"class.std::move_iterator" @_ZSt32__make_move_if_noexcept_iteratorImSt13move_iteratorIPmEET0_PT_(i64* %36), !dbg !307
  store %"class.std::move_iterator" %37, %"class.std::move_iterator"* %3, align 8, !dbg !307
  call void @_ZNSt13move_iteratorIPmEC1EOS1_(%"class.std::move_iterator"* %4, %"class.std::move_iterator"* %3), !dbg !307
  %38 = load %"class.std::move_iterator", %"class.std::move_iterator"* %6, align 8, !dbg !311
  %39 = load %"class.std::move_iterator", %"class.std::move_iterator"* %4, align 8, !dbg !311
  %40 = call i64* @_ZNSt6vectorImSaImEE20_M_allocate_and_copyISt13move_iteratorIPmEEES4_mT_S6_(%"class.std::vector.1"* %0, i64 %1, %"class.std::move_iterator" %38, %"class.std::move_iterator" %39), !dbg !311
  %41 = call %"class.std::allocator.3"* @_ZNSt12_Vector_baseImSaImEE19_M_get_Tp_allocatorEv(%"struct.std::_Vector_base.2"* %29), !dbg !312
  br label %42, !dbg !288

42:                                               ; preds = %17, %28
  %43 = phi i64* [ %40, %28 ], [ %19, %17 ]
  br label %44, !dbg !288

44:                                               ; preds = %42
  %45 = getelementptr %"class.std::vector.1", %"class.std::vector.1"* %0, i32 0, i32 0, !dbg !313
  %46 = getelementptr %"struct.std::_Vector_base.2", %"struct.std::_Vector_base.2"* %45, i32 0, i32 0, !dbg !314
  %47 = getelementptr %"struct.std::_Vector_base<unsigned long, std::allocator<unsigned long>>::_Vector_impl", %"struct.std::_Vector_base<unsigned long, std::allocator<unsigned long>>::_Vector_impl"* %46, i32 0, i32 0, !dbg !315
  %48 = getelementptr %"struct.std::_Vector_base<unsigned long, std::allocator<unsigned long>>::_Vector_impl_data", %"struct.std::_Vector_base<unsigned long, std::allocator<unsigned long>>::_Vector_impl_data"* %47, i32 0, i32 0, !dbg !316
  %49 = load i64*, i64** %48, align 8, !dbg !315
  %50 = getelementptr %"struct.std::_Vector_base<unsigned long, std::allocator<unsigned long>>::_Vector_impl_data", %"struct.std::_Vector_base<unsigned long, std::allocator<unsigned long>>::_Vector_impl_data"* %47, i32 0, i32 2, !dbg !317
  %51 = load i64*, i64** %50, align 8, !dbg !318
  %52 = ptrtoint i64* %49 to i64, !dbg !319
  %53 = ptrtoint i64* %51 to i64, !dbg !319
  %54 = sub i64 %53, %52, !dbg !319
  %55 = sdiv i64 %54, 8, !dbg !319
  call void @_ZNSt12_Vector_baseImSaImEE13_M_deallocateEPmm(%"struct.std::_Vector_base.2"* %45, i64* %49, i64 %55), !dbg !313
  store i64* %43, i64** %48, align 8, !dbg !320
  %56 = getelementptr %"struct.std::_Vector_base<unsigned long, std::allocator<unsigned long>>::_Vector_impl_data", %"struct.std::_Vector_base<unsigned long, std::allocator<unsigned long>>::_Vector_impl_data"* %47, i32 0, i32 1, !dbg !321
  %57 = getelementptr i64, i64* %43, i64 %14, !dbg !322
  store i64* %57, i64** %56, align 8, !dbg !323
  %58 = load i64*, i64** %48, align 8, !dbg !324
  %59 = getelementptr i64, i64* %58, i64 %1, !dbg !325
  store i64* %59, i64** %50, align 8, !dbg !326
  br label %60, !dbg !285

60:                                               ; preds = %44, %10
  ret void, !dbg !327
}

define internal i8 @"_ZZ41calculate_distribution_store_and_fwd_flagvENK3$_0clERKmRKc"(%class.anon* %0, i64* %1, i8* %2) #1 !dbg !328 {
  %4 = load i8, i8* %2, align 1, !dbg !329
  %5 = sext i8 %4 to i32, !dbg !329
  %6 = icmp eq i32 %5, 78, !dbg !331
  %7 = zext i1 %6 to i8, !dbg !331
  ret i8 %7, !dbg !332
}

define linkonce_odr i64* @_ZNSt6vectorImSaImEEixEm(%"class.std::vector.1"* %0, i64 %1) #1 !dbg !333 {
  %3 = getelementptr %"class.std::vector.1", %"class.std::vector.1"* %0, i32 0, i32 0, !dbg !334
  %4 = getelementptr %"struct.std::_Vector_base.2", %"struct.std::_Vector_base.2"* %3, i32 0, i32 0, !dbg !336
  %5 = getelementptr %"struct.std::_Vector_base<unsigned long, std::allocator<unsigned long>>::_Vector_impl", %"struct.std::_Vector_base<unsigned long, std::allocator<unsigned long>>::_Vector_impl"* %4, i32 0, i32 0, !dbg !334
  %6 = getelementptr %"struct.std::_Vector_base<unsigned long, std::allocator<unsigned long>>::_Vector_impl_data", %"struct.std::_Vector_base<unsigned long, std::allocator<unsigned long>>::_Vector_impl_data"* %5, i32 0, i32 0, !dbg !337
  %7 = load i64*, i64** %6, align 8, !dbg !334
  %8 = getelementptr i64, i64* %7, i64 %1, !dbg !338
  ret i64* %8, !dbg !339
}

define linkonce_odr i8* @_ZNKSt6vectorIcSaIcEEixEm(%"class.std::vector.8"* %0, i64 %1) #1 !dbg !340 {
  %3 = getelementptr %"class.std::vector.8", %"class.std::vector.8"* %0, i32 0, i32 0, !dbg !341
  %4 = getelementptr %"struct.std::_Vector_base.9", %"struct.std::_Vector_base.9"* %3, i32 0, i32 0, !dbg !343
  %5 = getelementptr %"struct.std::_Vector_base<char, std::allocator<char>>::_Vector_impl", %"struct.std::_Vector_base<char, std::allocator<char>>::_Vector_impl"* %4, i32 0, i32 0, !dbg !341
  %6 = getelementptr %"struct.std::_Vector_base<char, std::allocator<char>>::_Vector_impl_data", %"struct.std::_Vector_base<char, std::allocator<char>>::_Vector_impl_data"* %5, i32 0, i32 0, !dbg !344
  %7 = load i8*, i8** %6, align 8, !dbg !341
  %8 = getelementptr i8, i8* %7, i64 %1, !dbg !345
  ret i8* %8, !dbg !346
}

define linkonce_odr void @_ZNSt6vectorImSaImEE9push_backERKm(%"class.std::vector.1"* %0, i64* %1) #1 !dbg !347 {
  %3 = alloca %"class.__gnu_cxx::__normal_iterator.13", i64 1, align 8
  %4 = alloca %"class.__gnu_cxx::__normal_iterator.13", i64 1, align 8
  %5 = getelementptr %"class.std::vector.1", %"class.std::vector.1"* %0, i32 0, i32 0, !dbg !348
  %6 = getelementptr %"struct.std::_Vector_base.2", %"struct.std::_Vector_base.2"* %5, i32 0, i32 0, !dbg !350
  %7 = getelementptr %"struct.std::_Vector_base<unsigned long, std::allocator<unsigned long>>::_Vector_impl", %"struct.std::_Vector_base<unsigned long, std::allocator<unsigned long>>::_Vector_impl"* %6, i32 0, i32 0, !dbg !348
  %8 = getelementptr %"struct.std::_Vector_base<unsigned long, std::allocator<unsigned long>>::_Vector_impl_data", %"struct.std::_Vector_base<unsigned long, std::allocator<unsigned long>>::_Vector_impl_data"* %7, i32 0, i32 1, !dbg !351
  %9 = load i64*, i64** %8, align 8, !dbg !348
  %10 = getelementptr %"struct.std::_Vector_base<unsigned long, std::allocator<unsigned long>>::_Vector_impl_data", %"struct.std::_Vector_base<unsigned long, std::allocator<unsigned long>>::_Vector_impl_data"* %7, i32 0, i32 2, !dbg !352
  %11 = load i64*, i64** %10, align 8, !dbg !353
  %12 = icmp ne i64* %9, %11, !dbg !354
  br i1 %12, label %13, label %20, !dbg !355

13:                                               ; preds = %2
  %14 = bitcast %"struct.std::_Vector_base<unsigned long, std::allocator<unsigned long>>::_Vector_impl"* %6 to %"class.std::allocator.3"*, !dbg !356
  %15 = icmp ne %"class.std::allocator.3"* %14, null, !dbg !356
  %16 = select i1 %15, %"class.std::allocator.3"* %14, %"class.std::allocator.3"* null, !dbg !356
  %17 = load i64*, i64** %8, align 8, !dbg !357
  call void @_ZNSt16allocator_traitsISaImEE9constructImJRKmEEEvRS0_PT_DpOT0_(%"class.std::allocator.3"* %16, i64* %17, i64* %1), !dbg !358
  %18 = load i64*, i64** %8, align 8, !dbg !359
  %19 = getelementptr i64, i64* %18, i32 1, !dbg !359
  store i64* %19, i64** %8, align 8, !dbg !359
  br label %23, !dbg !355

20:                                               ; preds = %2
  %21 = call %"class.__gnu_cxx::__normal_iterator.13" @_ZNSt6vectorImSaImEE3endEv(%"class.std::vector.1"* %0), !dbg !360
  store %"class.__gnu_cxx::__normal_iterator.13" %21, %"class.__gnu_cxx::__normal_iterator.13"* %3, align 8, !dbg !360
  call void @_ZN9__gnu_cxx17__normal_iteratorIPmSt6vectorImSaImEEEC1EOS5_(%"class.__gnu_cxx::__normal_iterator.13"* %4, %"class.__gnu_cxx::__normal_iterator.13"* %3), !dbg !360
  %22 = load %"class.__gnu_cxx::__normal_iterator.13", %"class.__gnu_cxx::__normal_iterator.13"* %4, align 8, !dbg !361
  call void @_ZNSt6vectorImSaImEE17_M_realloc_insertIJRKmEEEvN9__gnu_cxx17__normal_iteratorIPmS1_EEDpOT_(%"class.std::vector.1"* %0, %"class.__gnu_cxx::__normal_iterator.13" %22, i64* %1), !dbg !361
  br label %23, !dbg !355

23:                                               ; preds = %13, %20
  ret void, !dbg !362
}

define linkonce_odr void @_Z8sel_loadIiEvRSt6vectorImSaImEERKS0_IT_SaIS4_EERS6_(%"class.std::vector.1"* %0, %"class.std::vector"* %1, %"class.std::vector"* %2) #1 !dbg !363 {
  %4 = alloca i64, i64 1, align 8
  store i64 undef, i64* %4, align 8
  %5 = alloca i64, i64 1, align 8, !dbg !364
  store i64 undef, i64* %5, align 8, !dbg !364
  %6 = call i64 @_ZNKSt6vectorIiSaIiEE4sizeEv(%"class.std::vector"* %1), !dbg !366
  store i64 %6, i64* %5, align 8, !dbg !364
  %7 = call i64 @_ZNKSt6vectorImSaImEE4sizeEv(%"class.std::vector.1"* %0), !dbg !367
  store i64 %7, i64* %4, align 8, !dbg !368
  %8 = call i64* @_ZSt3minImERKT_S2_S2_(i64* %4, i64* %5), !dbg !369
  %9 = load i64, i64* %8, align 8, !dbg !369
  call void @_ZNSt6vectorIiSaIiEE7reserveEm(%"class.std::vector"* %2, i64 %9), !dbg !370
  %10 = call i64 @_ZNKSt6vectorImSaImEE4sizeEv(%"class.std::vector.1"* %0), !dbg !371
  %11 = icmp sgt i64 %10, 0, !dbg !372
  br i1 %11, label %12, label %36, !dbg !372

12:                                               ; preds = %3
  %13 = icmp sgt i64 %10, 0, !dbg !372
  br i1 %13, label %14, label %34, !dbg !372

14:                                               ; preds = %30, %12
  %15 = phi i64 [ %31, %30 ], [ 0, %12 ]
  br label %16, !dbg !372

16:                                               ; preds = %14
  %17 = call i64* @_ZNSt6vectorImSaImEEixEm(%"class.std::vector.1"* %0, i64 %15), !dbg !373
  %18 = load i64, i64* %17, align 8, !dbg !373
  %19 = icmp sge i64 %18, 0, !dbg !374
  br i1 %19, label %20, label %21, !dbg !375

20:                                               ; preds = %16
  br label %23, !dbg !375

21:                                               ; preds = %16
  %22 = add i64 %10, %18, !dbg !376
  br label %23, !dbg !375

23:                                               ; preds = %20, %21
  %24 = phi i64 [ %22, %21 ], [ %18, %20 ]
  br label %25, !dbg !375

25:                                               ; preds = %23
  %26 = load i64, i64* %5, align 8, !dbg !377
  %27 = icmp slt i64 %24, %26, !dbg !378
  br i1 %27, label %28, label %30

28:                                               ; preds = %25
  %29 = call i32* @_ZNKSt6vectorIiSaIiEEixEm(%"class.std::vector"* %1, i64 %24), !dbg !379
  call void @_ZNSt6vectorIiSaIiEE9push_backERKi(%"class.std::vector"* %2, i32* %29), !dbg !380
  br label %30

30:                                               ; preds = %28, %25
  %31 = add i64 %15, 1, !dbg !372
  %32 = icmp slt i64 %31, %10, !dbg !372
  %33 = and i1 %32, %27, !dbg !372
  br i1 %33, label %14, label %34, !dbg !372

34:                                               ; preds = %30, %12
  br label %35, !dbg !372

35:                                               ; preds = %34
  br label %36, !dbg !372

36:                                               ; preds = %35, %3
  ret void, !dbg !381
}

declare %"class.std::vector"* @_Z10get_columnIiERSt6vectorIT_SaIS1_EEPKc(i8*) #1

define internal i8 @"_ZZ41calculate_distribution_store_and_fwd_flagvENK3$_1clERKmRKc"(%class.anon.6* %0, i64* %1, i8* %2) #1 !dbg !382 {
  %4 = load i8, i8* %2, align 1, !dbg !383
  %5 = sext i8 %4 to i32, !dbg !383
  %6 = icmp eq i32 %5, 89, !dbg !385
  %7 = zext i1 %6 to i8, !dbg !385
  ret i8 %7, !dbg !386
}

define linkonce_odr void @_ZNSt16allocator_traitsISaIiEE9constructIiJRKiEEEvRS0_PT_DpOT0_(%"class.std::allocator"* %0, i32* %1, i32* %2) #1 !dbg !387 {
  %4 = bitcast %"class.std::allocator"* %0 to %"class.__gnu_cxx::new_allocator"*, !dbg !389
  call void @_ZN9__gnu_cxx13new_allocatorIiE9constructIiJRKiEEEvPT_DpOT0_(%"class.__gnu_cxx::new_allocator"* %4, i32* %1, i32* %2), !dbg !391
  ret void, !dbg !392
}

define linkonce_odr void @_ZNSt6vectorIiSaIiEE17_M_realloc_insertIJRKiEEEvN9__gnu_cxx17__normal_iteratorIPiS1_EEDpOT_(%"class.std::vector"* %0, %"class.__gnu_cxx::__normal_iterator" %1, i32* %2) #1 !dbg !393 {
  %4 = alloca %"class.__gnu_cxx::__normal_iterator", i64 1, align 8
  %5 = alloca %"class.__gnu_cxx::__normal_iterator", i64 1, align 8, !dbg !394
  store %"class.__gnu_cxx::__normal_iterator" %1, %"class.__gnu_cxx::__normal_iterator"* %5, align 8, !dbg !394
  %6 = call i64 @_ZNKSt6vectorIiSaIiEE12_M_check_lenEmPKc(%"class.std::vector"* %0, i64 1, i8* getelementptr inbounds ([26 x i8], [26 x i8]* @str9, i32 0, i32 0)), !dbg !396
  %7 = getelementptr %"class.std::vector", %"class.std::vector"* %0, i32 0, i32 0, !dbg !398
  %8 = getelementptr %"struct.std::_Vector_base", %"struct.std::_Vector_base"* %7, i32 0, i32 0, !dbg !399
  %9 = getelementptr %"struct.std::_Vector_base<int, std::allocator<int>>::_Vector_impl", %"struct.std::_Vector_base<int, std::allocator<int>>::_Vector_impl"* %8, i32 0, i32 0, !dbg !398
  %10 = getelementptr %"struct.std::_Vector_base<int, std::allocator<int>>::_Vector_impl_data", %"struct.std::_Vector_base<int, std::allocator<int>>::_Vector_impl_data"* %9, i32 0, i32 0, !dbg !400
  %11 = load i32*, i32** %10, align 8, !dbg !398
  %12 = getelementptr %"struct.std::_Vector_base<int, std::allocator<int>>::_Vector_impl_data", %"struct.std::_Vector_base<int, std::allocator<int>>::_Vector_impl_data"* %9, i32 0, i32 1, !dbg !401
  %13 = load i32*, i32** %12, align 8, !dbg !402
  %14 = call %"class.__gnu_cxx::__normal_iterator" @_ZNSt6vectorIiSaIiEE5beginEv(%"class.std::vector"* %0), !dbg !403
  store %"class.__gnu_cxx::__normal_iterator" %14, %"class.__gnu_cxx::__normal_iterator"* %4, align 8, !dbg !403
  %15 = call i64 @_ZN9__gnu_cxxmiIPiSt6vectorIiSaIiEEEENS_17__normal_iteratorIT_T0_E15difference_typeERKS8_SB_(%"class.__gnu_cxx::__normal_iterator"* %5, %"class.__gnu_cxx::__normal_iterator"* %4), !dbg !404
  %16 = call i32* @_ZNSt12_Vector_baseIiSaIiEE11_M_allocateEm(%"struct.std::_Vector_base"* %7, i64 %6), !dbg !405
  %17 = bitcast %"struct.std::_Vector_base<int, std::allocator<int>>::_Vector_impl"* %8 to %"class.std::allocator"*, !dbg !406
  %18 = icmp ne %"class.std::allocator"* %17, null, !dbg !406
  %19 = select i1 %18, %"class.std::allocator"* %17, %"class.std::allocator"* null, !dbg !406
  %20 = getelementptr i32, i32* %16, i64 %15, !dbg !407
  call void @_ZNSt16allocator_traitsISaIiEE9constructIiJRKiEEEvRS0_PT_DpOT0_(%"class.std::allocator"* %19, i32* %20, i32* %2), !dbg !408
  %21 = call i8 @_ZNSt6vectorIiSaIiEE15_S_use_relocateEv(), !dbg !409
  %22 = icmp ne i8 %21, 0, !dbg !410
  br i1 %22, label %23, label %33, !dbg !410

23:                                               ; preds = %3
  %24 = call i32** @_ZNK9__gnu_cxx17__normal_iteratorIPiSt6vectorIiSaIiEEE4baseEv(%"class.__gnu_cxx::__normal_iterator"* %5), !dbg !411
  %25 = load i32*, i32** %24, align 8, !dbg !412
  %26 = call %"class.std::allocator"* @_ZNSt12_Vector_baseIiSaIiEE19_M_get_Tp_allocatorEv(%"struct.std::_Vector_base"* %7), !dbg !413
  %27 = call i32* @_ZSt14__relocate_a_1IiiENSt9enable_ifIXsr3std24__is_bitwise_relocatableIT_EE5valueEPS1_E4typeES2_S2_S2_RSaIT0_E(i32* %11, i32* %25, i32* %16, %"class.std::allocator"* %26), !dbg !414
  %28 = getelementptr i32, i32* %27, i32 1, !dbg !419
  %29 = call i32** @_ZNK9__gnu_cxx17__normal_iteratorIPiSt6vectorIiSaIiEEE4baseEv(%"class.__gnu_cxx::__normal_iterator"* %5), !dbg !420
  %30 = load i32*, i32** %29, align 8, !dbg !421
  %31 = call %"class.std::allocator"* @_ZNSt12_Vector_baseIiSaIiEE19_M_get_Tp_allocatorEv(%"struct.std::_Vector_base"* %7), !dbg !422
  %32 = call i32* @_ZSt14__relocate_a_1IiiENSt9enable_ifIXsr3std24__is_bitwise_relocatableIT_EE5valueEPS1_E4typeES2_S2_S2_RSaIT0_E(i32* %30, i32* %13, i32* %28, %"class.std::allocator"* %31), !dbg !414
  br label %43, !dbg !410

33:                                               ; preds = %3
  %34 = call i32** @_ZNK9__gnu_cxx17__normal_iteratorIPiSt6vectorIiSaIiEEE4baseEv(%"class.__gnu_cxx::__normal_iterator"* %5), !dbg !423
  %35 = load i32*, i32** %34, align 8, !dbg !424
  %36 = call %"class.std::allocator"* @_ZNSt12_Vector_baseIiSaIiEE19_M_get_Tp_allocatorEv(%"struct.std::_Vector_base"* %7), !dbg !425
  %37 = call i32* @_ZSt34__uninitialized_move_if_noexcept_aIPiS0_SaIiEET0_T_S3_S2_RT1_(i32* %11, i32* %35, i32* %16, %"class.std::allocator"* %36), !dbg !426
  %38 = getelementptr i32, i32* %37, i32 1, !dbg !427
  %39 = call i32** @_ZNK9__gnu_cxx17__normal_iteratorIPiSt6vectorIiSaIiEEE4baseEv(%"class.__gnu_cxx::__normal_iterator"* %5), !dbg !428
  %40 = load i32*, i32** %39, align 8, !dbg !429
  %41 = call %"class.std::allocator"* @_ZNSt12_Vector_baseIiSaIiEE19_M_get_Tp_allocatorEv(%"struct.std::_Vector_base"* %7), !dbg !430
  %42 = call i32* @_ZSt34__uninitialized_move_if_noexcept_aIPiS0_SaIiEET0_T_S3_S2_RT1_(i32* %40, i32* %13, i32* %38, %"class.std::allocator"* %41), !dbg !431
  br label %43, !dbg !410

43:                                               ; preds = %23, %33
  %44 = phi i32* [ %42, %33 ], [ %32, %23 ]
  br label %45, !dbg !410

45:                                               ; preds = %43
  %46 = call i8 @_ZNSt6vectorIiSaIiEE15_S_use_relocateEv(), !dbg !432
  %47 = icmp eq i8 %46, 0, !dbg !433
  br i1 %47, label %48, label %50, !dbg !434

48:                                               ; preds = %45
  %49 = call %"class.std::allocator"* @_ZNSt12_Vector_baseIiSaIiEE19_M_get_Tp_allocatorEv(%"struct.std::_Vector_base"* %7), !dbg !435
  br label %50, !dbg !434

50:                                               ; preds = %48, %45
  %51 = getelementptr %"struct.std::_Vector_base<int, std::allocator<int>>::_Vector_impl_data", %"struct.std::_Vector_base<int, std::allocator<int>>::_Vector_impl_data"* %9, i32 0, i32 2, !dbg !436
  %52 = load i32*, i32** %51, align 8, !dbg !437
  %53 = ptrtoint i32* %11 to i64, !dbg !438
  %54 = ptrtoint i32* %52 to i64, !dbg !438
  %55 = sub i64 %54, %53, !dbg !438
  %56 = sdiv i64 %55, 4, !dbg !438
  call void @_ZNSt12_Vector_baseIiSaIiEE13_M_deallocateEPim(%"struct.std::_Vector_base"* %7, i32* %11, i64 %56), !dbg !439
  store i32* %16, i32** %10, align 8, !dbg !440
  store i32* %44, i32** %12, align 8, !dbg !441
  %57 = getelementptr i32, i32* %16, i64 %6, !dbg !442
  store i32* %57, i32** %51, align 8, !dbg !443
  ret void, !dbg !444
}

define linkonce_odr void @_ZN9__gnu_cxx17__normal_iteratorIPiSt6vectorIiSaIiEEEC1ERKS1_(%"class.__gnu_cxx::__normal_iterator"* %0, i32** %1) #1 !dbg !445 {
  %3 = load i32*, i32** %1, align 8, !dbg !446
  %4 = getelementptr %"class.__gnu_cxx::__normal_iterator", %"class.__gnu_cxx::__normal_iterator"* %0, i32 0, i32 0, !dbg !448
  store i32* %3, i32** %4, align 8, !dbg !448
  ret void, !dbg !449
}

define linkonce_odr i32** @_ZNK9__gnu_cxx17__normal_iteratorIPiSt6vectorIiSaIiEEE4baseEv(%"class.__gnu_cxx::__normal_iterator"* %0) #1 !dbg !450 {
  %2 = getelementptr %"class.__gnu_cxx::__normal_iterator", %"class.__gnu_cxx::__normal_iterator"* %0, i32 0, i32 0, !dbg !451
  ret i32** %2, !dbg !453
}

define linkonce_odr void @_ZNSt6chrono8durationIlSt5ratioILl1ELl1000000EEEC1IlvEERKT_(%"struct.std::chrono::duration.0"* %0, i64* %1) #1 !dbg !454 {
  %3 = load i64, i64* %1, align 8, !dbg !455
  %4 = getelementptr %"struct.std::chrono::duration.0", %"struct.std::chrono::duration.0"* %0, i32 0, i32 0, !dbg !457
  store i64 %3, i64* %4, align 8, !dbg !457
  ret void, !dbg !458
}

define linkonce_odr i64 @_ZNKSt6chrono8durationIlSt5ratioILl1ELl1000000000EEE5countEv(%"struct.std::chrono::duration"* %0) #1 !dbg !459 {
  %2 = getelementptr %"struct.std::chrono::duration", %"struct.std::chrono::duration"* %0, i32 0, i32 0, !dbg !460
  %3 = load i64, i64* %2, align 8, !dbg !460
  ret i64 %3, !dbg !462
}

define linkonce_odr void @_ZNSt12_Vector_baseIiSaIiEE12_Vector_implC1Ev(%"struct.std::_Vector_base<int, std::allocator<int>>::_Vector_impl"* %0) #1 !dbg !463 {
  %2 = getelementptr %"struct.std::_Vector_base<int, std::allocator<int>>::_Vector_impl", %"struct.std::_Vector_base<int, std::allocator<int>>::_Vector_impl"* %0, i32 0, i32 0, !dbg !464
  call void @_ZNSt12_Vector_baseIiSaIiEE17_Vector_impl_dataC1Ev(%"struct.std::_Vector_base<int, std::allocator<int>>::_Vector_impl_data"* %2), !dbg !464
  ret void, !dbg !466
}

define linkonce_odr void @_ZNSt12_Vector_baseImSaImEEC1Ev(%"struct.std::_Vector_base.2"* %0) #1 !dbg !467 {
  %2 = getelementptr %"struct.std::_Vector_base.2", %"struct.std::_Vector_base.2"* %0, i32 0, i32 0, !dbg !468
  call void @_ZNSt12_Vector_baseImSaImEE12_Vector_implC1Ev(%"struct.std::_Vector_base<unsigned long, std::allocator<unsigned long>>::_Vector_impl"* %2), !dbg !468
  ret void, !dbg !470
}

define linkonce_odr i64 @_ZNKSt6vectorImSaImEE8max_sizeEv(%"class.std::vector.1"* %0) #1 !dbg !471 {
  %2 = getelementptr %"class.std::vector.1", %"class.std::vector.1"* %0, i32 0, i32 0, !dbg !472
  %3 = call %"class.std::allocator.3"* @_ZNKSt12_Vector_baseImSaImEE19_M_get_Tp_allocatorEv(%"struct.std::_Vector_base.2"* %2), !dbg !472
  %4 = call i64 @_ZNSt6vectorImSaImEE11_S_max_sizeERKS0_(%"class.std::allocator.3"* %3), !dbg !474
  ret i64 %4, !dbg !475
}

declare void @_ZSt20__throw_length_errorPKc(i8*) #1

define linkonce_odr i64 @_ZNKSt6vectorImSaImEE8capacityEv(%"class.std::vector.1"* %0) #1 !dbg !476 {
  %2 = getelementptr %"class.std::vector.1", %"class.std::vector.1"* %0, i32 0, i32 0, !dbg !477
  %3 = getelementptr %"struct.std::_Vector_base.2", %"struct.std::_Vector_base.2"* %2, i32 0, i32 0, !dbg !479
  %4 = getelementptr %"struct.std::_Vector_base<unsigned long, std::allocator<unsigned long>>::_Vector_impl", %"struct.std::_Vector_base<unsigned long, std::allocator<unsigned long>>::_Vector_impl"* %3, i32 0, i32 0, !dbg !477
  %5 = getelementptr %"struct.std::_Vector_base<unsigned long, std::allocator<unsigned long>>::_Vector_impl_data", %"struct.std::_Vector_base<unsigned long, std::allocator<unsigned long>>::_Vector_impl_data"* %4, i32 0, i32 2, !dbg !480
  %6 = load i64*, i64** %5, align 8, !dbg !477
  %7 = getelementptr %"struct.std::_Vector_base<unsigned long, std::allocator<unsigned long>>::_Vector_impl_data", %"struct.std::_Vector_base<unsigned long, std::allocator<unsigned long>>::_Vector_impl_data"* %4, i32 0, i32 0, !dbg !481
  %8 = load i64*, i64** %7, align 8, !dbg !482
  %9 = ptrtoint i64* %8 to i64, !dbg !483
  %10 = ptrtoint i64* %6 to i64, !dbg !483
  %11 = sub i64 %10, %9, !dbg !483
  %12 = sdiv i64 %11, 8, !dbg !483
  ret i64 %12, !dbg !484
}

define linkonce_odr i8 @_ZNSt6vectorImSaImEE15_S_use_relocateEv() #1 !dbg !485 {
  %1 = alloca %"struct.std::__is_move_insertable", i64 1, align 8
  %2 = bitcast %"struct.std::__is_move_insertable"* %1 to i8*, !dbg !486
  call void @llvm.memset.p0i8.i64(i8* %2, i8 0, i64 1, i1 false), !dbg !486
  ret i8 1, !dbg !488
}

define linkonce_odr i64* @_ZNSt12_Vector_baseImSaImEE11_M_allocateEm(%"struct.std::_Vector_base.2"* %0, i64 %1) #1 !dbg !489 {
  %3 = icmp ne i64 %1, 0, !dbg !490
  br i1 %3, label %4, label %10, !dbg !492

4:                                                ; preds = %2
  %5 = getelementptr %"struct.std::_Vector_base.2", %"struct.std::_Vector_base.2"* %0, i32 0, i32 0, !dbg !493
  %6 = bitcast %"struct.std::_Vector_base<unsigned long, std::allocator<unsigned long>>::_Vector_impl"* %5 to %"class.std::allocator.3"*, !dbg !493
  %7 = icmp ne %"class.std::allocator.3"* %6, null, !dbg !493
  %8 = select i1 %7, %"class.std::allocator.3"* %6, %"class.std::allocator.3"* null, !dbg !493
  %9 = call i64* @_ZNSt16allocator_traitsISaImEE8allocateERS0_m(%"class.std::allocator.3"* %8, i64 %1), !dbg !494
  br label %11, !dbg !492

10:                                               ; preds = %2
  br label %11, !dbg !492

11:                                               ; preds = %4, %10
  %12 = phi i64* [ null, %10 ], [ %9, %4 ]
  br label %13, !dbg !492

13:                                               ; preds = %11
  ret i64* %12, !dbg !495
}

define linkonce_odr i64* @_ZNSt6vectorImSaImEE11_S_relocateEPmS2_S2_RS0_(i64* %0, i64* %1, i64* %2, %"class.std::allocator.3"* %3) #1 !dbg !496 {
  %5 = call i64* @_ZSt14__relocate_a_1ImmENSt9enable_ifIXsr3std24__is_bitwise_relocatableIT_EE5valueEPS1_E4typeES2_S2_S2_RSaIT0_E(i64* %0, i64* %1, i64* %2, %"class.std::allocator.3"* %3), !dbg !497
  ret i64* %5, !dbg !502
}

define linkonce_odr %"class.std::allocator.3"* @_ZNSt12_Vector_baseImSaImEE19_M_get_Tp_allocatorEv(%"struct.std::_Vector_base.2"* %0) #1 !dbg !503 {
  %2 = getelementptr %"struct.std::_Vector_base.2", %"struct.std::_Vector_base.2"* %0, i32 0, i32 0, !dbg !504
  %3 = bitcast %"struct.std::_Vector_base<unsigned long, std::allocator<unsigned long>>::_Vector_impl"* %2 to %"class.std::allocator.3"*, !dbg !506
  %4 = icmp ne %"class.std::allocator.3"* %3, null, !dbg !506
  %5 = select i1 %4, %"class.std::allocator.3"* %3, %"class.std::allocator.3"* null, !dbg !506
  ret %"class.std::allocator.3"* %5, !dbg !507
}

define linkonce_odr i64* @_ZNSt6vectorImSaImEE20_M_allocate_and_copyISt13move_iteratorIPmEEES4_mT_S6_(%"class.std::vector.1"* %0, i64 %1, %"class.std::move_iterator" %2, %"class.std::move_iterator" %3) #1 !dbg !508 {
  %5 = alloca %"class.std::move_iterator", i64 1, align 8
  %6 = alloca %"class.std::move_iterator", i64 1, align 8
  %7 = alloca %"class.std::move_iterator", i64 1, align 8, !dbg !509
  %8 = alloca %"class.std::move_iterator", i64 1, align 8, !dbg !511
  store %"class.std::move_iterator" %2, %"class.std::move_iterator"* %8, align 8, !dbg !511
  store %"class.std::move_iterator" %3, %"class.std::move_iterator"* %7, align 8, !dbg !509
  %9 = getelementptr %"class.std::vector.1", %"class.std::vector.1"* %0, i32 0, i32 0, !dbg !512
  %10 = call i64* @_ZNSt12_Vector_baseImSaImEE11_M_allocateEm(%"struct.std::_Vector_base.2"* %9, i64 %1), !dbg !513
  call void @_ZNSt13move_iteratorIPmEC1ERKS1_(%"class.std::move_iterator"* %6, %"class.std::move_iterator"* %8), !dbg !514
  call void @_ZNSt13move_iteratorIPmEC1ERKS1_(%"class.std::move_iterator"* %5, %"class.std::move_iterator"* %7), !dbg !515
  %11 = call %"class.std::allocator.3"* @_ZNSt12_Vector_baseImSaImEE19_M_get_Tp_allocatorEv(%"struct.std::_Vector_base.2"* %9), !dbg !516
  %12 = load %"class.std::move_iterator", %"class.std::move_iterator"* %6, align 8, !dbg !517
  %13 = load %"class.std::move_iterator", %"class.std::move_iterator"* %5, align 8, !dbg !517
  %14 = call i64* @_ZSt22__uninitialized_copy_aISt13move_iteratorIPmES1_mET0_T_S4_S3_RSaIT1_E(%"class.std::move_iterator" %12, %"class.std::move_iterator" %13, i64* %10, %"class.std::allocator.3"* %11), !dbg !517
  ret i64* %10, !dbg !518
}

define linkonce_odr void @_ZNSt13move_iteratorIPmEC1EOS1_(%"class.std::move_iterator"* %0, %"class.std::move_iterator"* %1) #1 !dbg !519 {
  %3 = getelementptr %"class.std::move_iterator", %"class.std::move_iterator"* %1, i32 0, i32 0, !dbg !520
  %4 = load i64*, i64** %3, align 8, !dbg !520
  %5 = getelementptr %"class.std::move_iterator", %"class.std::move_iterator"* %0, i32 0, i32 0, !dbg !520
  store i64* %4, i64** %5, align 8, !dbg !520
  ret void, !dbg !520
}

define linkonce_odr %"class.std::move_iterator" @_ZSt32__make_move_if_noexcept_iteratorImSt13move_iteratorIPmEET0_PT_(i64* %0) #1 !dbg !522 {
  %2 = alloca %"class.std::move_iterator", i64 1, align 8
  %3 = alloca %"class.std::move_iterator", i64 1, align 8
  %4 = alloca %"class.std::move_iterator", i64 1, align 8
  call void @_ZNSt13move_iteratorIPmEC1ES0_(%"class.std::move_iterator"* %3, i64* %0), !dbg !523
  %5 = load %"class.std::move_iterator", %"class.std::move_iterator"* %3, align 8, !dbg !523
  store %"class.std::move_iterator" %5, %"class.std::move_iterator"* %2, align 8, !dbg !523
  call void @_ZNSt13move_iteratorIPmEC1EOS1_(%"class.std::move_iterator"* %4, %"class.std::move_iterator"* %2), !dbg !523
  %6 = load %"class.std::move_iterator", %"class.std::move_iterator"* %4, align 8, !dbg !525
  ret %"class.std::move_iterator" %6, !dbg !526
}

define linkonce_odr void @_ZSt8_DestroyIPmmEvT_S1_RSaIT0_E(i64* %0, i64* %1, %"class.std::allocator.3"* %2) #1 !dbg !527 {
  ret void, !dbg !529
}

define linkonce_odr void @_ZNSt12_Vector_baseImSaImEE13_M_deallocateEPmm(%"struct.std::_Vector_base.2"* %0, i64* %1, i64 %2) #1 !dbg !531 {
  %4 = icmp ne i64* %1, null, !dbg !532
  br i1 %4, label %5, label %10

5:                                                ; preds = %3
  %6 = getelementptr %"struct.std::_Vector_base.2", %"struct.std::_Vector_base.2"* %0, i32 0, i32 0, !dbg !534
  %7 = bitcast %"struct.std::_Vector_base<unsigned long, std::allocator<unsigned long>>::_Vector_impl"* %6 to %"class.std::allocator.3"*, !dbg !534
  %8 = icmp ne %"class.std::allocator.3"* %7, null, !dbg !534
  %9 = select i1 %8, %"class.std::allocator.3"* %7, %"class.std::allocator.3"* null, !dbg !534
  call void @_ZNSt16allocator_traitsISaImEE10deallocateERS0_Pmm(%"class.std::allocator.3"* %9, i64* %1, i64 %2), !dbg !535
  br label %10

10:                                               ; preds = %5, %3
  ret void, !dbg !536
}

define linkonce_odr void @_ZNSt16allocator_traitsISaImEE9constructImJRKmEEEvRS0_PT_DpOT0_(%"class.std::allocator.3"* %0, i64* %1, i64* %2) #1 !dbg !537 {
  %4 = bitcast %"class.std::allocator.3"* %0 to %"class.__gnu_cxx::new_allocator.4"*, !dbg !538
  call void @_ZN9__gnu_cxx13new_allocatorImE9constructImJRKmEEEvPT_DpOT0_(%"class.__gnu_cxx::new_allocator.4"* %4, i64* %1, i64* %2), !dbg !540
  ret void, !dbg !541
}

define linkonce_odr void @_ZNSt6vectorImSaImEE17_M_realloc_insertIJRKmEEEvN9__gnu_cxx17__normal_iteratorIPmS1_EEDpOT_(%"class.std::vector.1"* %0, %"class.__gnu_cxx::__normal_iterator.13" %1, i64* %2) #1 !dbg !542 {
  %4 = alloca %"class.__gnu_cxx::__normal_iterator.13", i64 1, align 8
  %5 = alloca %"class.__gnu_cxx::__normal_iterator.13", i64 1, align 8, !dbg !543
  store %"class.__gnu_cxx::__normal_iterator.13" %1, %"class.__gnu_cxx::__normal_iterator.13"* %5, align 8, !dbg !543
  %6 = call i64 @_ZNKSt6vectorImSaImEE12_M_check_lenEmPKc(%"class.std::vector.1"* %0, i64 1, i8* getelementptr inbounds ([26 x i8], [26 x i8]* @str9, i32 0, i32 0)), !dbg !545
  %7 = getelementptr %"class.std::vector.1", %"class.std::vector.1"* %0, i32 0, i32 0, !dbg !547
  %8 = getelementptr %"struct.std::_Vector_base.2", %"struct.std::_Vector_base.2"* %7, i32 0, i32 0, !dbg !548
  %9 = getelementptr %"struct.std::_Vector_base<unsigned long, std::allocator<unsigned long>>::_Vector_impl", %"struct.std::_Vector_base<unsigned long, std::allocator<unsigned long>>::_Vector_impl"* %8, i32 0, i32 0, !dbg !547
  %10 = getelementptr %"struct.std::_Vector_base<unsigned long, std::allocator<unsigned long>>::_Vector_impl_data", %"struct.std::_Vector_base<unsigned long, std::allocator<unsigned long>>::_Vector_impl_data"* %9, i32 0, i32 0, !dbg !549
  %11 = load i64*, i64** %10, align 8, !dbg !547
  %12 = getelementptr %"struct.std::_Vector_base<unsigned long, std::allocator<unsigned long>>::_Vector_impl_data", %"struct.std::_Vector_base<unsigned long, std::allocator<unsigned long>>::_Vector_impl_data"* %9, i32 0, i32 1, !dbg !550
  %13 = load i64*, i64** %12, align 8, !dbg !551
  %14 = call %"class.__gnu_cxx::__normal_iterator.13" @_ZNSt6vectorImSaImEE5beginEv(%"class.std::vector.1"* %0), !dbg !552
  store %"class.__gnu_cxx::__normal_iterator.13" %14, %"class.__gnu_cxx::__normal_iterator.13"* %4, align 8, !dbg !552
  %15 = call i64 @_ZN9__gnu_cxxmiIPmSt6vectorImSaImEEEENS_17__normal_iteratorIT_T0_E15difference_typeERKS8_SB_(%"class.__gnu_cxx::__normal_iterator.13"* %5, %"class.__gnu_cxx::__normal_iterator.13"* %4), !dbg !553
  %16 = call i64* @_ZNSt12_Vector_baseImSaImEE11_M_allocateEm(%"struct.std::_Vector_base.2"* %7, i64 %6), !dbg !554
  %17 = bitcast %"struct.std::_Vector_base<unsigned long, std::allocator<unsigned long>>::_Vector_impl"* %8 to %"class.std::allocator.3"*, !dbg !555
  %18 = icmp ne %"class.std::allocator.3"* %17, null, !dbg !555
  %19 = select i1 %18, %"class.std::allocator.3"* %17, %"class.std::allocator.3"* null, !dbg !555
  %20 = getelementptr i64, i64* %16, i64 %15, !dbg !556
  call void @_ZNSt16allocator_traitsISaImEE9constructImJRKmEEEvRS0_PT_DpOT0_(%"class.std::allocator.3"* %19, i64* %20, i64* %2), !dbg !557
  %21 = call i8 @_ZNSt6vectorImSaImEE15_S_use_relocateEv(), !dbg !558
  %22 = icmp ne i8 %21, 0, !dbg !559
  br i1 %22, label %23, label %33, !dbg !559

23:                                               ; preds = %3
  %24 = call i64** @_ZNK9__gnu_cxx17__normal_iteratorIPmSt6vectorImSaImEEE4baseEv(%"class.__gnu_cxx::__normal_iterator.13"* %5), !dbg !560
  %25 = load i64*, i64** %24, align 8, !dbg !561
  %26 = call %"class.std::allocator.3"* @_ZNSt12_Vector_baseImSaImEE19_M_get_Tp_allocatorEv(%"struct.std::_Vector_base.2"* %7), !dbg !562
  %27 = call i64* @_ZSt14__relocate_a_1ImmENSt9enable_ifIXsr3std24__is_bitwise_relocatableIT_EE5valueEPS1_E4typeES2_S2_S2_RSaIT0_E(i64* %11, i64* %25, i64* %16, %"class.std::allocator.3"* %26), !dbg !563
  %28 = getelementptr i64, i64* %27, i32 1, !dbg !568
  %29 = call i64** @_ZNK9__gnu_cxx17__normal_iteratorIPmSt6vectorImSaImEEE4baseEv(%"class.__gnu_cxx::__normal_iterator.13"* %5), !dbg !569
  %30 = load i64*, i64** %29, align 8, !dbg !570
  %31 = call %"class.std::allocator.3"* @_ZNSt12_Vector_baseImSaImEE19_M_get_Tp_allocatorEv(%"struct.std::_Vector_base.2"* %7), !dbg !571
  %32 = call i64* @_ZSt14__relocate_a_1ImmENSt9enable_ifIXsr3std24__is_bitwise_relocatableIT_EE5valueEPS1_E4typeES2_S2_S2_RSaIT0_E(i64* %30, i64* %13, i64* %28, %"class.std::allocator.3"* %31), !dbg !563
  br label %43, !dbg !559

33:                                               ; preds = %3
  %34 = call i64** @_ZNK9__gnu_cxx17__normal_iteratorIPmSt6vectorImSaImEEE4baseEv(%"class.__gnu_cxx::__normal_iterator.13"* %5), !dbg !572
  %35 = load i64*, i64** %34, align 8, !dbg !573
  %36 = call %"class.std::allocator.3"* @_ZNSt12_Vector_baseImSaImEE19_M_get_Tp_allocatorEv(%"struct.std::_Vector_base.2"* %7), !dbg !574
  %37 = call i64* @_ZSt34__uninitialized_move_if_noexcept_aIPmS0_SaImEET0_T_S3_S2_RT1_(i64* %11, i64* %35, i64* %16, %"class.std::allocator.3"* %36), !dbg !575
  %38 = getelementptr i64, i64* %37, i32 1, !dbg !576
  %39 = call i64** @_ZNK9__gnu_cxx17__normal_iteratorIPmSt6vectorImSaImEEE4baseEv(%"class.__gnu_cxx::__normal_iterator.13"* %5), !dbg !577
  %40 = load i64*, i64** %39, align 8, !dbg !578
  %41 = call %"class.std::allocator.3"* @_ZNSt12_Vector_baseImSaImEE19_M_get_Tp_allocatorEv(%"struct.std::_Vector_base.2"* %7), !dbg !579
  %42 = call i64* @_ZSt34__uninitialized_move_if_noexcept_aIPmS0_SaImEET0_T_S3_S2_RT1_(i64* %40, i64* %13, i64* %38, %"class.std::allocator.3"* %41), !dbg !580
  br label %43, !dbg !559

43:                                               ; preds = %23, %33
  %44 = phi i64* [ %42, %33 ], [ %32, %23 ]
  br label %45, !dbg !559

45:                                               ; preds = %43
  %46 = call i8 @_ZNSt6vectorImSaImEE15_S_use_relocateEv(), !dbg !581
  %47 = icmp eq i8 %46, 0, !dbg !582
  br i1 %47, label %48, label %50, !dbg !583

48:                                               ; preds = %45
  %49 = call %"class.std::allocator.3"* @_ZNSt12_Vector_baseImSaImEE19_M_get_Tp_allocatorEv(%"struct.std::_Vector_base.2"* %7), !dbg !584
  br label %50, !dbg !583

50:                                               ; preds = %48, %45
  %51 = getelementptr %"struct.std::_Vector_base<unsigned long, std::allocator<unsigned long>>::_Vector_impl_data", %"struct.std::_Vector_base<unsigned long, std::allocator<unsigned long>>::_Vector_impl_data"* %9, i32 0, i32 2, !dbg !585
  %52 = load i64*, i64** %51, align 8, !dbg !586
  %53 = ptrtoint i64* %11 to i64, !dbg !587
  %54 = ptrtoint i64* %52 to i64, !dbg !587
  %55 = sub i64 %54, %53, !dbg !587
  %56 = sdiv i64 %55, 8, !dbg !587
  call void @_ZNSt12_Vector_baseImSaImEE13_M_deallocateEPmm(%"struct.std::_Vector_base.2"* %7, i64* %11, i64 %56), !dbg !588
  store i64* %16, i64** %10, align 8, !dbg !589
  store i64* %44, i64** %12, align 8, !dbg !590
  %57 = getelementptr i64, i64* %16, i64 %6, !dbg !591
  store i64* %57, i64** %51, align 8, !dbg !592
  ret void, !dbg !593
}

define linkonce_odr void @_ZN9__gnu_cxx17__normal_iteratorIPmSt6vectorImSaImEEEC1EOS5_(%"class.__gnu_cxx::__normal_iterator.13"* %0, %"class.__gnu_cxx::__normal_iterator.13"* %1) #1 !dbg !594 {
  %3 = getelementptr %"class.__gnu_cxx::__normal_iterator.13", %"class.__gnu_cxx::__normal_iterator.13"* %1, i32 0, i32 0, !dbg !595
  %4 = load i64*, i64** %3, align 8, !dbg !595
  %5 = getelementptr %"class.__gnu_cxx::__normal_iterator.13", %"class.__gnu_cxx::__normal_iterator.13"* %0, i32 0, i32 0, !dbg !595
  store i64* %4, i64** %5, align 8, !dbg !595
  ret void, !dbg !595
}

define linkonce_odr %"class.__gnu_cxx::__normal_iterator.13" @_ZNSt6vectorImSaImEE3endEv(%"class.std::vector.1"* %0) #1 !dbg !597 {
  %2 = alloca %"class.__gnu_cxx::__normal_iterator.13", i64 1, align 8
  %3 = alloca %"class.__gnu_cxx::__normal_iterator.13", i64 1, align 8
  %4 = alloca %"class.__gnu_cxx::__normal_iterator.13", i64 1, align 8
  %5 = getelementptr %"class.std::vector.1", %"class.std::vector.1"* %0, i32 0, i32 0, !dbg !598
  %6 = getelementptr %"struct.std::_Vector_base.2", %"struct.std::_Vector_base.2"* %5, i32 0, i32 0, !dbg !600
  %7 = getelementptr %"struct.std::_Vector_base<unsigned long, std::allocator<unsigned long>>::_Vector_impl", %"struct.std::_Vector_base<unsigned long, std::allocator<unsigned long>>::_Vector_impl"* %6, i32 0, i32 0, !dbg !598
  %8 = getelementptr %"struct.std::_Vector_base<unsigned long, std::allocator<unsigned long>>::_Vector_impl_data", %"struct.std::_Vector_base<unsigned long, std::allocator<unsigned long>>::_Vector_impl_data"* %7, i32 0, i32 1, !dbg !601
  call void @_ZN9__gnu_cxx17__normal_iteratorIPmSt6vectorImSaImEEEC1ERKS1_(%"class.__gnu_cxx::__normal_iterator.13"* %3, i64** %8), !dbg !602
  %9 = load %"class.__gnu_cxx::__normal_iterator.13", %"class.__gnu_cxx::__normal_iterator.13"* %3, align 8, !dbg !602
  store %"class.__gnu_cxx::__normal_iterator.13" %9, %"class.__gnu_cxx::__normal_iterator.13"* %2, align 8, !dbg !602
  call void @_ZN9__gnu_cxx17__normal_iteratorIPmSt6vectorImSaImEEEC1EOS5_(%"class.__gnu_cxx::__normal_iterator.13"* %4, %"class.__gnu_cxx::__normal_iterator.13"* %2), !dbg !602
  %10 = load %"class.__gnu_cxx::__normal_iterator.13", %"class.__gnu_cxx::__normal_iterator.13"* %4, align 8, !dbg !603
  ret %"class.__gnu_cxx::__normal_iterator.13" %10, !dbg !604
}

define linkonce_odr void @_ZNSt6vectorIiSaIiEE7reserveEm(%"class.std::vector"* %0, i64 %1) #1 !dbg !605 {
  %3 = alloca %"class.std::move_iterator.14", i64 1, align 8
  %4 = alloca %"class.std::move_iterator.14", i64 1, align 8
  %5 = alloca %"class.std::move_iterator.14", i64 1, align 8
  %6 = alloca %"class.std::move_iterator.14", i64 1, align 8
  %7 = call i64 @_ZNKSt6vectorIiSaIiEE8max_sizeEv(%"class.std::vector"* %0), !dbg !606
  %8 = icmp sgt i64 %1, %7, !dbg !608
  br i1 %8, label %9, label %10, !dbg !609

9:                                                ; preds = %2
  call void @_ZSt20__throw_length_errorPKc(i8* getelementptr inbounds ([16 x i8], [16 x i8]* @str8, i32 0, i32 0)), !dbg !610
  br label %10, !dbg !609

10:                                               ; preds = %9, %2
  %11 = call i64 @_ZNKSt6vectorIiSaIiEE8capacityEv(%"class.std::vector"* %0), !dbg !611
  %12 = icmp slt i64 %11, %1, !dbg !612
  br i1 %12, label %13, label %60, !dbg !613

13:                                               ; preds = %10
  %14 = call i64 @_ZNKSt6vectorIiSaIiEE4sizeEv(%"class.std::vector"* %0), !dbg !614
  %15 = call i8 @_ZNSt6vectorIiSaIiEE15_S_use_relocateEv(), !dbg !615
  %16 = icmp ne i8 %15, 0, !dbg !616
  br i1 %16, label %17, label %28, !dbg !616

17:                                               ; preds = %13
  %18 = getelementptr %"class.std::vector", %"class.std::vector"* %0, i32 0, i32 0, !dbg !617
  %19 = call i32* @_ZNSt12_Vector_baseIiSaIiEE11_M_allocateEm(%"struct.std::_Vector_base"* %18, i64 %1), !dbg !618
  %20 = getelementptr %"struct.std::_Vector_base", %"struct.std::_Vector_base"* %18, i32 0, i32 0, !dbg !619
  %21 = getelementptr %"struct.std::_Vector_base<int, std::allocator<int>>::_Vector_impl", %"struct.std::_Vector_base<int, std::allocator<int>>::_Vector_impl"* %20, i32 0, i32 0, !dbg !620
  %22 = getelementptr %"struct.std::_Vector_base<int, std::allocator<int>>::_Vector_impl_data", %"struct.std::_Vector_base<int, std::allocator<int>>::_Vector_impl_data"* %21, i32 0, i32 0, !dbg !621
  %23 = load i32*, i32** %22, align 8, !dbg !620
  %24 = getelementptr %"struct.std::_Vector_base<int, std::allocator<int>>::_Vector_impl_data", %"struct.std::_Vector_base<int, std::allocator<int>>::_Vector_impl_data"* %21, i32 0, i32 1, !dbg !622
  %25 = load i32*, i32** %24, align 8, !dbg !623
  %26 = call %"class.std::allocator"* @_ZNSt12_Vector_baseIiSaIiEE19_M_get_Tp_allocatorEv(%"struct.std::_Vector_base"* %18), !dbg !624
  %27 = call i32* @_ZSt14__relocate_a_1IiiENSt9enable_ifIXsr3std24__is_bitwise_relocatableIT_EE5valueEPS1_E4typeES2_S2_S2_RSaIT0_E(i32* %23, i32* %25, i32* %19, %"class.std::allocator"* %26), !dbg !625
  br label %42, !dbg !616

28:                                               ; preds = %13
  %29 = getelementptr %"class.std::vector", %"class.std::vector"* %0, i32 0, i32 0, !dbg !631
  %30 = getelementptr %"struct.std::_Vector_base", %"struct.std::_Vector_base"* %29, i32 0, i32 0, !dbg !632
  %31 = getelementptr %"struct.std::_Vector_base<int, std::allocator<int>>::_Vector_impl", %"struct.std::_Vector_base<int, std::allocator<int>>::_Vector_impl"* %30, i32 0, i32 0, !dbg !631
  %32 = getelementptr %"struct.std::_Vector_base<int, std::allocator<int>>::_Vector_impl_data", %"struct.std::_Vector_base<int, std::allocator<int>>::_Vector_impl_data"* %31, i32 0, i32 0, !dbg !633
  %33 = load i32*, i32** %32, align 8, !dbg !631
  %34 = call %"class.std::move_iterator.14" @_ZSt32__make_move_if_noexcept_iteratorIiSt13move_iteratorIPiEET0_PT_(i32* %33), !dbg !634
  store %"class.std::move_iterator.14" %34, %"class.std::move_iterator.14"* %5, align 8, !dbg !634
  call void @_ZNSt13move_iteratorIPiEC1EOS1_(%"class.std::move_iterator.14"* %6, %"class.std::move_iterator.14"* %5), !dbg !634
  %35 = getelementptr %"struct.std::_Vector_base<int, std::allocator<int>>::_Vector_impl_data", %"struct.std::_Vector_base<int, std::allocator<int>>::_Vector_impl_data"* %31, i32 0, i32 1, !dbg !636
  %36 = load i32*, i32** %35, align 8, !dbg !637
  %37 = call %"class.std::move_iterator.14" @_ZSt32__make_move_if_noexcept_iteratorIiSt13move_iteratorIPiEET0_PT_(i32* %36), !dbg !634
  store %"class.std::move_iterator.14" %37, %"class.std::move_iterator.14"* %3, align 8, !dbg !634
  call void @_ZNSt13move_iteratorIPiEC1EOS1_(%"class.std::move_iterator.14"* %4, %"class.std::move_iterator.14"* %3), !dbg !634
  %38 = load %"class.std::move_iterator.14", %"class.std::move_iterator.14"* %6, align 8, !dbg !638
  %39 = load %"class.std::move_iterator.14", %"class.std::move_iterator.14"* %4, align 8, !dbg !638
  %40 = call i32* @_ZNSt6vectorIiSaIiEE20_M_allocate_and_copyISt13move_iteratorIPiEEES4_mT_S6_(%"class.std::vector"* %0, i64 %1, %"class.std::move_iterator.14" %38, %"class.std::move_iterator.14" %39), !dbg !638
  %41 = call %"class.std::allocator"* @_ZNSt12_Vector_baseIiSaIiEE19_M_get_Tp_allocatorEv(%"struct.std::_Vector_base"* %29), !dbg !639
  br label %42, !dbg !616

42:                                               ; preds = %17, %28
  %43 = phi i32* [ %40, %28 ], [ %19, %17 ]
  br label %44, !dbg !616

44:                                               ; preds = %42
  %45 = getelementptr %"class.std::vector", %"class.std::vector"* %0, i32 0, i32 0, !dbg !640
  %46 = getelementptr %"struct.std::_Vector_base", %"struct.std::_Vector_base"* %45, i32 0, i32 0, !dbg !641
  %47 = getelementptr %"struct.std::_Vector_base<int, std::allocator<int>>::_Vector_impl", %"struct.std::_Vector_base<int, std::allocator<int>>::_Vector_impl"* %46, i32 0, i32 0, !dbg !642
  %48 = getelementptr %"struct.std::_Vector_base<int, std::allocator<int>>::_Vector_impl_data", %"struct.std::_Vector_base<int, std::allocator<int>>::_Vector_impl_data"* %47, i32 0, i32 0, !dbg !643
  %49 = load i32*, i32** %48, align 8, !dbg !642
  %50 = getelementptr %"struct.std::_Vector_base<int, std::allocator<int>>::_Vector_impl_data", %"struct.std::_Vector_base<int, std::allocator<int>>::_Vector_impl_data"* %47, i32 0, i32 2, !dbg !644
  %51 = load i32*, i32** %50, align 8, !dbg !645
  %52 = ptrtoint i32* %49 to i64, !dbg !646
  %53 = ptrtoint i32* %51 to i64, !dbg !646
  %54 = sub i64 %53, %52, !dbg !646
  %55 = sdiv i64 %54, 4, !dbg !646
  call void @_ZNSt12_Vector_baseIiSaIiEE13_M_deallocateEPim(%"struct.std::_Vector_base"* %45, i32* %49, i64 %55), !dbg !640
  store i32* %43, i32** %48, align 8, !dbg !647
  %56 = getelementptr %"struct.std::_Vector_base<int, std::allocator<int>>::_Vector_impl_data", %"struct.std::_Vector_base<int, std::allocator<int>>::_Vector_impl_data"* %47, i32 0, i32 1, !dbg !648
  %57 = getelementptr i32, i32* %43, i64 %14, !dbg !649
  store i32* %57, i32** %56, align 8, !dbg !650
  %58 = load i32*, i32** %48, align 8, !dbg !651
  %59 = getelementptr i32, i32* %58, i64 %1, !dbg !652
  store i32* %59, i32** %50, align 8, !dbg !653
  br label %60, !dbg !613

60:                                               ; preds = %44, %10
  ret void, !dbg !654
}

define linkonce_odr i64* @_ZSt3minImERKT_S2_S2_(i64* %0, i64* %1) #1 !dbg !655 {
  %3 = load i64, i64* %1, align 8, !dbg !657
  %4 = load i64, i64* %0, align 8, !dbg !659
  %5 = icmp slt i64 %3, %4, !dbg !660
  %6 = select i1 %5, i64* %1, i64* %0, !dbg !661
  ret i64* %6, !dbg !662
}

define linkonce_odr i32* @_ZNKSt6vectorIiSaIiEEixEm(%"class.std::vector"* %0, i64 %1) #1 !dbg !663 {
  %3 = getelementptr %"class.std::vector", %"class.std::vector"* %0, i32 0, i32 0, !dbg !664
  %4 = getelementptr %"struct.std::_Vector_base", %"struct.std::_Vector_base"* %3, i32 0, i32 0, !dbg !666
  %5 = getelementptr %"struct.std::_Vector_base<int, std::allocator<int>>::_Vector_impl", %"struct.std::_Vector_base<int, std::allocator<int>>::_Vector_impl"* %4, i32 0, i32 0, !dbg !664
  %6 = getelementptr %"struct.std::_Vector_base<int, std::allocator<int>>::_Vector_impl_data", %"struct.std::_Vector_base<int, std::allocator<int>>::_Vector_impl_data"* %5, i32 0, i32 0, !dbg !667
  %7 = load i32*, i32** %6, align 8, !dbg !664
  %8 = getelementptr i32, i32* %7, i64 %1, !dbg !668
  ret i32* %8, !dbg !669
}

define linkonce_odr void @_ZN9__gnu_cxx13new_allocatorIiE9constructIiJRKiEEEvPT_DpOT0_(%"class.__gnu_cxx::new_allocator"* %0, i32* %1, i32* %2) #1 !dbg !670 {
  %4 = load i32, i32* %2, align 4, !dbg !672
  store i32 %4, i32* %1, align 4, !dbg !674
  ret void, !dbg !675
}

define linkonce_odr i64 @_ZNKSt6vectorIiSaIiEE12_M_check_lenEmPKc(%"class.std::vector"* %0, i64 %1, i8* %2) #1 !dbg !676 {
  %4 = alloca i64, i64 1, align 8
  store i64 undef, i64* %4, align 8
  %5 = alloca i64, i64 1, align 8, !dbg !677
  store i64 undef, i64* %5, align 8, !dbg !677
  store i64 %1, i64* %5, align 8, !dbg !677
  %6 = call i64 @_ZNKSt6vectorIiSaIiEE8max_sizeEv(%"class.std::vector"* %0), !dbg !679
  %7 = call i64 @_ZNKSt6vectorIiSaIiEE4sizeEv(%"class.std::vector"* %0), !dbg !680
  %8 = sub i64 %6, %7, !dbg !681
  %9 = load i64, i64* %5, align 8, !dbg !682
  %10 = icmp slt i64 %8, %9, !dbg !683
  br i1 %10, label %11, label %12, !dbg !684

11:                                               ; preds = %3
  call void @_ZSt20__throw_length_errorPKc(i8* %2), !dbg !685
  br label %12, !dbg !684

12:                                               ; preds = %11, %3
  %13 = call i64 @_ZNKSt6vectorIiSaIiEE4sizeEv(%"class.std::vector"* %0), !dbg !686
  %14 = call i64 @_ZNKSt6vectorIiSaIiEE4sizeEv(%"class.std::vector"* %0), !dbg !687
  store i64 %14, i64* %4, align 8, !dbg !687
  %15 = call i64* @_ZSt3maxImERKT_S2_S2_(i64* %4, i64* %5), !dbg !688
  %16 = load i64, i64* %15, align 8, !dbg !688
  %17 = add i64 %13, %16, !dbg !689
  %18 = call i64 @_ZNKSt6vectorIiSaIiEE4sizeEv(%"class.std::vector"* %0), !dbg !690
  %19 = icmp slt i64 %17, %18, !dbg !691
  br i1 %19, label %20, label %21, !dbg !692

20:                                               ; preds = %12
  br label %24, !dbg !692

21:                                               ; preds = %12
  %22 = call i64 @_ZNKSt6vectorIiSaIiEE8max_sizeEv(%"class.std::vector"* %0), !dbg !693
  %23 = icmp sgt i64 %17, %22, !dbg !694
  br label %24, !dbg !692

24:                                               ; preds = %20, %21
  %25 = phi i1 [ %23, %21 ], [ true, %20 ]
  br label %26, !dbg !692

26:                                               ; preds = %24
  br i1 %25, label %27, label %29, !dbg !695

27:                                               ; preds = %26
  %28 = call i64 @_ZNKSt6vectorIiSaIiEE8max_sizeEv(%"class.std::vector"* %0), !dbg !696
  br label %30, !dbg !695

29:                                               ; preds = %26
  br label %30, !dbg !695

30:                                               ; preds = %27, %29
  %31 = phi i64 [ %17, %29 ], [ %28, %27 ]
  br label %32, !dbg !695

32:                                               ; preds = %30
  ret i64 %31, !dbg !697
}

define linkonce_odr i64 @_ZN9__gnu_cxxmiIPiSt6vectorIiSaIiEEEENS_17__normal_iteratorIT_T0_E15difference_typeERKS8_SB_(%"class.__gnu_cxx::__normal_iterator"* %0, %"class.__gnu_cxx::__normal_iterator"* %1) #1 !dbg !698 {
  %3 = call i32** @_ZNK9__gnu_cxx17__normal_iteratorIPiSt6vectorIiSaIiEEE4baseEv(%"class.__gnu_cxx::__normal_iterator"* %0), !dbg !699
  %4 = load i32*, i32** %3, align 8, !dbg !701
  %5 = call i32** @_ZNK9__gnu_cxx17__normal_iteratorIPiSt6vectorIiSaIiEEE4baseEv(%"class.__gnu_cxx::__normal_iterator"* %1), !dbg !702
  %6 = load i32*, i32** %5, align 8, !dbg !703
  %7 = ptrtoint i32* %6 to i64, !dbg !704
  %8 = ptrtoint i32* %4 to i64, !dbg !704
  %9 = sub i64 %8, %7, !dbg !704
  %10 = sdiv i64 %9, 4, !dbg !704
  ret i64 %10, !dbg !705
}

define linkonce_odr i32* @_ZNSt12_Vector_baseIiSaIiEE11_M_allocateEm(%"struct.std::_Vector_base"* %0, i64 %1) #1 !dbg !706 {
  %3 = icmp ne i64 %1, 0, !dbg !707
  br i1 %3, label %4, label %10, !dbg !709

4:                                                ; preds = %2
  %5 = getelementptr %"struct.std::_Vector_base", %"struct.std::_Vector_base"* %0, i32 0, i32 0, !dbg !710
  %6 = bitcast %"struct.std::_Vector_base<int, std::allocator<int>>::_Vector_impl"* %5 to %"class.std::allocator"*, !dbg !710
  %7 = icmp ne %"class.std::allocator"* %6, null, !dbg !710
  %8 = select i1 %7, %"class.std::allocator"* %6, %"class.std::allocator"* null, !dbg !710
  %9 = call i32* @_ZNSt16allocator_traitsISaIiEE8allocateERS0_m(%"class.std::allocator"* %8, i64 %1), !dbg !711
  br label %11, !dbg !709

10:                                               ; preds = %2
  br label %11, !dbg !709

11:                                               ; preds = %4, %10
  %12 = phi i32* [ null, %10 ], [ %9, %4 ]
  br label %13, !dbg !709

13:                                               ; preds = %11
  ret i32* %12, !dbg !712
}

define linkonce_odr i8 @_ZNSt6vectorIiSaIiEE15_S_use_relocateEv() #1 !dbg !713 {
  %1 = alloca %"struct.std::__is_move_insertable.15", i64 1, align 8
  %2 = bitcast %"struct.std::__is_move_insertable.15"* %1 to i8*, !dbg !714
  call void @llvm.memset.p0i8.i64(i8* %2, i8 0, i64 1, i1 false), !dbg !714
  ret i8 1, !dbg !716
}

define linkonce_odr i32* @_ZNSt6vectorIiSaIiEE11_S_relocateEPiS2_S2_RS0_(i32* %0, i32* %1, i32* %2, %"class.std::allocator"* %3) #1 !dbg !717 {
  %5 = call i32* @_ZSt14__relocate_a_1IiiENSt9enable_ifIXsr3std24__is_bitwise_relocatableIT_EE5valueEPS1_E4typeES2_S2_S2_RSaIT0_E(i32* %0, i32* %1, i32* %2, %"class.std::allocator"* %3), !dbg !718
  ret i32* %5, !dbg !723
}

define linkonce_odr %"class.std::allocator"* @_ZNSt12_Vector_baseIiSaIiEE19_M_get_Tp_allocatorEv(%"struct.std::_Vector_base"* %0) #1 !dbg !724 {
  %2 = getelementptr %"struct.std::_Vector_base", %"struct.std::_Vector_base"* %0, i32 0, i32 0, !dbg !725
  %3 = bitcast %"struct.std::_Vector_base<int, std::allocator<int>>::_Vector_impl"* %2 to %"class.std::allocator"*, !dbg !727
  %4 = icmp ne %"class.std::allocator"* %3, null, !dbg !727
  %5 = select i1 %4, %"class.std::allocator"* %3, %"class.std::allocator"* null, !dbg !727
  ret %"class.std::allocator"* %5, !dbg !728
}

define linkonce_odr i32* @_ZSt34__uninitialized_move_if_noexcept_aIPiS0_SaIiEET0_T_S3_S2_RT1_(i32* %0, i32* %1, i32* %2, %"class.std::allocator"* %3) #1 !dbg !729 {
  %5 = alloca %"class.std::move_iterator.14", i64 1, align 8
  %6 = alloca %"class.std::move_iterator.14", i64 1, align 8
  %7 = alloca %"class.std::move_iterator.14", i64 1, align 8
  %8 = alloca %"class.std::move_iterator.14", i64 1, align 8
  %9 = call %"class.std::move_iterator.14" @_ZSt32__make_move_if_noexcept_iteratorIiSt13move_iteratorIPiEET0_PT_(i32* %0), !dbg !730
  store %"class.std::move_iterator.14" %9, %"class.std::move_iterator.14"* %7, align 8, !dbg !730
  call void @_ZNSt13move_iteratorIPiEC1EOS1_(%"class.std::move_iterator.14"* %8, %"class.std::move_iterator.14"* %7), !dbg !730
  %10 = call %"class.std::move_iterator.14" @_ZSt32__make_move_if_noexcept_iteratorIiSt13move_iteratorIPiEET0_PT_(i32* %1), !dbg !730
  store %"class.std::move_iterator.14" %10, %"class.std::move_iterator.14"* %5, align 8, !dbg !730
  call void @_ZNSt13move_iteratorIPiEC1EOS1_(%"class.std::move_iterator.14"* %6, %"class.std::move_iterator.14"* %5), !dbg !730
  %11 = load %"class.std::move_iterator.14", %"class.std::move_iterator.14"* %8, align 8, !dbg !732
  %12 = load %"class.std::move_iterator.14", %"class.std::move_iterator.14"* %6, align 8, !dbg !732
  %13 = call i32* @_ZSt22__uninitialized_copy_aISt13move_iteratorIPiES1_iET0_T_S4_S3_RSaIT1_E(%"class.std::move_iterator.14" %11, %"class.std::move_iterator.14" %12, i32* %2, %"class.std::allocator"* %3), !dbg !732
  ret i32* %13, !dbg !734
}

define linkonce_odr void @_ZSt8_DestroyIPiiEvT_S1_RSaIT0_E(i32* %0, i32* %1, %"class.std::allocator"* %2) #1 !dbg !735 {
  ret void, !dbg !736
}

define linkonce_odr void @_ZNSt12_Vector_baseIiSaIiEE13_M_deallocateEPim(%"struct.std::_Vector_base"* %0, i32* %1, i64 %2) #1 !dbg !738 {
  %4 = icmp ne i32* %1, null, !dbg !739
  br i1 %4, label %5, label %10

5:                                                ; preds = %3
  %6 = getelementptr %"struct.std::_Vector_base", %"struct.std::_Vector_base"* %0, i32 0, i32 0, !dbg !741
  %7 = bitcast %"struct.std::_Vector_base<int, std::allocator<int>>::_Vector_impl"* %6 to %"class.std::allocator"*, !dbg !741
  %8 = icmp ne %"class.std::allocator"* %7, null, !dbg !741
  %9 = select i1 %8, %"class.std::allocator"* %7, %"class.std::allocator"* null, !dbg !741
  call void @_ZNSt16allocator_traitsISaIiEE10deallocateERS0_Pim(%"class.std::allocator"* %9, i32* %1, i64 %2), !dbg !742
  br label %10

10:                                               ; preds = %5, %3
  ret void, !dbg !743
}

define linkonce_odr void @_ZNSaIiEC1Ev(%"class.std::allocator"* %0) #1 !dbg !744 {
  ret void, !dbg !746
}

define linkonce_odr void @_ZNSt12_Vector_baseIiSaIiEE17_Vector_impl_dataC1Ev(%"struct.std::_Vector_base<int, std::allocator<int>>::_Vector_impl_data"* %0) #1 !dbg !748 {
  %2 = getelementptr %"struct.std::_Vector_base<int, std::allocator<int>>::_Vector_impl_data", %"struct.std::_Vector_base<int, std::allocator<int>>::_Vector_impl_data"* %0, i32 0, i32 0, !dbg !749
  store i32* null, i32** %2, align 8, !dbg !749
  %3 = getelementptr %"struct.std::_Vector_base<int, std::allocator<int>>::_Vector_impl_data", %"struct.std::_Vector_base<int, std::allocator<int>>::_Vector_impl_data"* %0, i32 0, i32 1, !dbg !749
  store i32* null, i32** %3, align 8, !dbg !749
  %4 = getelementptr %"struct.std::_Vector_base<int, std::allocator<int>>::_Vector_impl_data", %"struct.std::_Vector_base<int, std::allocator<int>>::_Vector_impl_data"* %0, i32 0, i32 2, !dbg !749
  store i32* null, i32** %4, align 8, !dbg !749
  ret void, !dbg !751
}

define linkonce_odr void @_ZNSt12_Vector_baseImSaImEE12_Vector_implC1Ev(%"struct.std::_Vector_base<unsigned long, std::allocator<unsigned long>>::_Vector_impl"* %0) #1 !dbg !752 {
  %2 = getelementptr %"struct.std::_Vector_base<unsigned long, std::allocator<unsigned long>>::_Vector_impl", %"struct.std::_Vector_base<unsigned long, std::allocator<unsigned long>>::_Vector_impl"* %0, i32 0, i32 0, !dbg !753
  call void @_ZNSt12_Vector_baseImSaImEE17_Vector_impl_dataC1Ev(%"struct.std::_Vector_base<unsigned long, std::allocator<unsigned long>>::_Vector_impl_data"* %2), !dbg !753
  ret void, !dbg !755
}

define linkonce_odr i64 @_ZNSt6vectorImSaImEE11_S_max_sizeERKS0_(%"class.std::allocator.3"* %0) #1 !dbg !756 {
  %2 = alloca i64, i64 1, align 8, !dbg !757
  store i64 undef, i64* %2, align 8, !dbg !757
  %3 = alloca i64, i64 1, align 8, !dbg !759
  store i64 undef, i64* %3, align 8, !dbg !759
  store i64 1152921504606846975, i64* %3, align 8, !dbg !759
  store i64 1152921504606846975, i64* %2, align 8, !dbg !757
  %4 = call i64* @_ZSt3minImERKT_S2_S2_(i64* %3, i64* %2), !dbg !760
  %5 = load i64, i64* %4, align 8, !dbg !760
  ret i64 %5, !dbg !761
}

define linkonce_odr %"class.std::allocator.3"* @_ZNKSt12_Vector_baseImSaImEE19_M_get_Tp_allocatorEv(%"struct.std::_Vector_base.2"* %0) #1 !dbg !762 {
  %2 = getelementptr %"struct.std::_Vector_base.2", %"struct.std::_Vector_base.2"* %0, i32 0, i32 0, !dbg !763
  %3 = bitcast %"struct.std::_Vector_base<unsigned long, std::allocator<unsigned long>>::_Vector_impl"* %2 to %"class.std::allocator.3"*, !dbg !765
  %4 = icmp ne %"class.std::allocator.3"* %3, null, !dbg !765
  %5 = select i1 %4, %"class.std::allocator.3"* %3, %"class.std::allocator.3"* null, !dbg !765
  ret %"class.std::allocator.3"* %5, !dbg !766
}

define linkonce_odr i8 @_ZNSt6vectorImSaImEE19_S_nothrow_relocateESt17integral_constantIbLb1EE(%"struct.std::integral_constant" %0) #1 !dbg !767 {
  ret i8 1, !dbg !768
}

define linkonce_odr void @_ZNSt17integral_constantIbLb1EEC1EOS0_(%"struct.std::integral_constant"* %0, %"struct.std::integral_constant"* %1) #1 !dbg !770 {
  ret void, !dbg !772
}

define linkonce_odr i64* @_ZNSt16allocator_traitsISaImEE8allocateERS0_m(%"class.std::allocator.3"* %0, i64 %1) #1 !dbg !774 {
  %3 = bitcast %"class.std::allocator.3"* %0 to %"class.__gnu_cxx::new_allocator.4"*, !dbg !775
  %4 = call i64* @_ZN9__gnu_cxx13new_allocatorImE8allocateEmPKv(%"class.__gnu_cxx::new_allocator.4"* %3, i64 %1, i8* null), !dbg !777
  ret i64* %4, !dbg !778
}

define linkonce_odr i64* @_ZNSt6vectorImSaImEE14_S_do_relocateEPmS2_S2_RS0_St17integral_constantIbLb1EE(i64* %0, i64* %1, i64* %2, %"class.std::allocator.3"* %3, %"struct.std::integral_constant" %4) #1 !dbg !779 {
  %6 = call i64* @_ZSt14__relocate_a_1ImmENSt9enable_ifIXsr3std24__is_bitwise_relocatableIT_EE5valueEPS1_E4typeES2_S2_S2_RSaIT0_E(i64* %0, i64* %1, i64* %2, %"class.std::allocator.3"* %3), !dbg !780
  ret i64* %6, !dbg !784
}

define linkonce_odr i64* @_ZSt22__uninitialized_copy_aISt13move_iteratorIPmES1_mET0_T_S4_S3_RSaIT1_E(%"class.std::move_iterator" %0, %"class.std::move_iterator" %1, i64* %2, %"class.std::allocator.3"* %3) #1 !dbg !785 {
  %5 = alloca %"class.std::move_iterator", i64 1, align 8
  %6 = alloca %"class.std::move_iterator", i64 1, align 8
  %7 = alloca %"class.std::move_iterator", i64 1, align 8, !dbg !786
  %8 = alloca %"class.std::move_iterator", i64 1, align 8, !dbg !788
  store %"class.std::move_iterator" %0, %"class.std::move_iterator"* %8, align 8, !dbg !788
  store %"class.std::move_iterator" %1, %"class.std::move_iterator"* %7, align 8, !dbg !786
  call void @_ZNSt13move_iteratorIPmEC1ERKS1_(%"class.std::move_iterator"* %6, %"class.std::move_iterator"* %8), !dbg !789
  call void @_ZNSt13move_iteratorIPmEC1ERKS1_(%"class.std::move_iterator"* %5, %"class.std::move_iterator"* %7), !dbg !790
  %9 = load %"class.std::move_iterator", %"class.std::move_iterator"* %6, align 8, !dbg !791
  %10 = load %"class.std::move_iterator", %"class.std::move_iterator"* %5, align 8, !dbg !791
  %11 = call i64* @_ZSt18uninitialized_copyISt13move_iteratorIPmES1_ET0_T_S4_S3_(%"class.std::move_iterator" %9, %"class.std::move_iterator" %10, i64* %2), !dbg !791
  ret i64* %11, !dbg !792
}

define linkonce_odr void @_ZNSt13move_iteratorIPmEC1ERKS1_(%"class.std::move_iterator"* %0, %"class.std::move_iterator"* %1) #1 !dbg !793 {
  %3 = getelementptr %"class.std::move_iterator", %"class.std::move_iterator"* %1, i32 0, i32 0, !dbg !794
  %4 = load i64*, i64** %3, align 8, !dbg !794
  %5 = getelementptr %"class.std::move_iterator", %"class.std::move_iterator"* %0, i32 0, i32 0, !dbg !794
  store i64* %4, i64** %5, align 8, !dbg !794
  ret void, !dbg !794
}

define linkonce_odr void @_ZNSt13move_iteratorIPmEC1ES0_(%"class.std::move_iterator"* %0, i64* %1) #1 !dbg !796 {
  %3 = getelementptr %"class.std::move_iterator", %"class.std::move_iterator"* %0, i32 0, i32 0, !dbg !797
  store i64* %1, i64** %3, align 8, !dbg !797
  ret void, !dbg !799
}

define linkonce_odr void @_ZSt8_DestroyIPmEvT_S1_(i64* %0, i64* %1) #1 !dbg !800 {
  ret void, !dbg !801
}

define linkonce_odr void @_ZNSt16allocator_traitsISaImEE10deallocateERS0_Pmm(%"class.std::allocator.3"* %0, i64* %1, i64 %2) #1 !dbg !803 {
  %4 = bitcast %"class.std::allocator.3"* %0 to %"class.__gnu_cxx::new_allocator.4"*, !dbg !804
  call void @_ZN9__gnu_cxx13new_allocatorImE10deallocateEPmm(%"class.__gnu_cxx::new_allocator.4"* %4, i64* %1, i64 %2), !dbg !806
  ret void, !dbg !807
}

define linkonce_odr void @_ZN9__gnu_cxx13new_allocatorImE9constructImJRKmEEEvPT_DpOT0_(%"class.__gnu_cxx::new_allocator.4"* %0, i64* %1, i64* %2) #1 !dbg !808 {
  %4 = load i64, i64* %2, align 8, !dbg !809
  store i64 %4, i64* %1, align 8, !dbg !811
  ret void, !dbg !812
}

define linkonce_odr i64 @_ZNKSt6vectorImSaImEE12_M_check_lenEmPKc(%"class.std::vector.1"* %0, i64 %1, i8* %2) #1 !dbg !813 {
  %4 = alloca i64, i64 1, align 8
  store i64 undef, i64* %4, align 8
  %5 = alloca i64, i64 1, align 8, !dbg !814
  store i64 undef, i64* %5, align 8, !dbg !814
  store i64 %1, i64* %5, align 8, !dbg !814
  %6 = call i64 @_ZNKSt6vectorImSaImEE8max_sizeEv(%"class.std::vector.1"* %0), !dbg !816
  %7 = call i64 @_ZNKSt6vectorImSaImEE4sizeEv(%"class.std::vector.1"* %0), !dbg !817
  %8 = sub i64 %6, %7, !dbg !818
  %9 = load i64, i64* %5, align 8, !dbg !819
  %10 = icmp slt i64 %8, %9, !dbg !820
  br i1 %10, label %11, label %12, !dbg !821

11:                                               ; preds = %3
  call void @_ZSt20__throw_length_errorPKc(i8* %2), !dbg !822
  br label %12, !dbg !821

12:                                               ; preds = %11, %3
  %13 = call i64 @_ZNKSt6vectorImSaImEE4sizeEv(%"class.std::vector.1"* %0), !dbg !823
  %14 = call i64 @_ZNKSt6vectorImSaImEE4sizeEv(%"class.std::vector.1"* %0), !dbg !824
  store i64 %14, i64* %4, align 8, !dbg !824
  %15 = call i64* @_ZSt3maxImERKT_S2_S2_(i64* %4, i64* %5), !dbg !825
  %16 = load i64, i64* %15, align 8, !dbg !825
  %17 = add i64 %13, %16, !dbg !826
  %18 = call i64 @_ZNKSt6vectorImSaImEE4sizeEv(%"class.std::vector.1"* %0), !dbg !827
  %19 = icmp slt i64 %17, %18, !dbg !828
  br i1 %19, label %20, label %21, !dbg !829

20:                                               ; preds = %12
  br label %24, !dbg !829

21:                                               ; preds = %12
  %22 = call i64 @_ZNKSt6vectorImSaImEE8max_sizeEv(%"class.std::vector.1"* %0), !dbg !830
  %23 = icmp sgt i64 %17, %22, !dbg !831
  br label %24, !dbg !829

24:                                               ; preds = %20, %21
  %25 = phi i1 [ %23, %21 ], [ true, %20 ]
  br label %26, !dbg !829

26:                                               ; preds = %24
  br i1 %25, label %27, label %29, !dbg !832

27:                                               ; preds = %26
  %28 = call i64 @_ZNKSt6vectorImSaImEE8max_sizeEv(%"class.std::vector.1"* %0), !dbg !833
  br label %30, !dbg !832

29:                                               ; preds = %26
  br label %30, !dbg !832

30:                                               ; preds = %27, %29
  %31 = phi i64 [ %17, %29 ], [ %28, %27 ]
  br label %32, !dbg !832

32:                                               ; preds = %30
  ret i64 %31, !dbg !834
}

define linkonce_odr i64 @_ZN9__gnu_cxxmiIPmSt6vectorImSaImEEEENS_17__normal_iteratorIT_T0_E15difference_typeERKS8_SB_(%"class.__gnu_cxx::__normal_iterator.13"* %0, %"class.__gnu_cxx::__normal_iterator.13"* %1) #1 !dbg !835 {
  %3 = call i64** @_ZNK9__gnu_cxx17__normal_iteratorIPmSt6vectorImSaImEEE4baseEv(%"class.__gnu_cxx::__normal_iterator.13"* %0), !dbg !836
  %4 = load i64*, i64** %3, align 8, !dbg !838
  %5 = call i64** @_ZNK9__gnu_cxx17__normal_iteratorIPmSt6vectorImSaImEEE4baseEv(%"class.__gnu_cxx::__normal_iterator.13"* %1), !dbg !839
  %6 = load i64*, i64** %5, align 8, !dbg !840
  %7 = ptrtoint i64* %6 to i64, !dbg !841
  %8 = ptrtoint i64* %4 to i64, !dbg !841
  %9 = sub i64 %8, %7, !dbg !841
  %10 = sdiv i64 %9, 8, !dbg !841
  ret i64 %10, !dbg !842
}

define linkonce_odr %"class.__gnu_cxx::__normal_iterator.13" @_ZNSt6vectorImSaImEE5beginEv(%"class.std::vector.1"* %0) #1 !dbg !843 {
  %2 = alloca %"class.__gnu_cxx::__normal_iterator.13", i64 1, align 8
  %3 = alloca %"class.__gnu_cxx::__normal_iterator.13", i64 1, align 8
  %4 = alloca %"class.__gnu_cxx::__normal_iterator.13", i64 1, align 8
  %5 = getelementptr %"class.std::vector.1", %"class.std::vector.1"* %0, i32 0, i32 0, !dbg !844
  %6 = getelementptr %"struct.std::_Vector_base.2", %"struct.std::_Vector_base.2"* %5, i32 0, i32 0, !dbg !846
  %7 = getelementptr %"struct.std::_Vector_base<unsigned long, std::allocator<unsigned long>>::_Vector_impl", %"struct.std::_Vector_base<unsigned long, std::allocator<unsigned long>>::_Vector_impl"* %6, i32 0, i32 0, !dbg !844
  %8 = getelementptr %"struct.std::_Vector_base<unsigned long, std::allocator<unsigned long>>::_Vector_impl_data", %"struct.std::_Vector_base<unsigned long, std::allocator<unsigned long>>::_Vector_impl_data"* %7, i32 0, i32 0, !dbg !847
  call void @_ZN9__gnu_cxx17__normal_iteratorIPmSt6vectorImSaImEEEC1ERKS1_(%"class.__gnu_cxx::__normal_iterator.13"* %3, i64** %8), !dbg !848
  %9 = load %"class.__gnu_cxx::__normal_iterator.13", %"class.__gnu_cxx::__normal_iterator.13"* %3, align 8, !dbg !848
  store %"class.__gnu_cxx::__normal_iterator.13" %9, %"class.__gnu_cxx::__normal_iterator.13"* %2, align 8, !dbg !848
  call void @_ZN9__gnu_cxx17__normal_iteratorIPmSt6vectorImSaImEEEC1EOS5_(%"class.__gnu_cxx::__normal_iterator.13"* %4, %"class.__gnu_cxx::__normal_iterator.13"* %2), !dbg !848
  %10 = load %"class.__gnu_cxx::__normal_iterator.13", %"class.__gnu_cxx::__normal_iterator.13"* %4, align 8, !dbg !849
  ret %"class.__gnu_cxx::__normal_iterator.13" %10, !dbg !850
}

define linkonce_odr i64** @_ZNK9__gnu_cxx17__normal_iteratorIPmSt6vectorImSaImEEE4baseEv(%"class.__gnu_cxx::__normal_iterator.13"* %0) #1 !dbg !851 {
  %2 = getelementptr %"class.__gnu_cxx::__normal_iterator.13", %"class.__gnu_cxx::__normal_iterator.13"* %0, i32 0, i32 0, !dbg !852
  ret i64** %2, !dbg !854
}

define linkonce_odr i64* @_ZSt34__uninitialized_move_if_noexcept_aIPmS0_SaImEET0_T_S3_S2_RT1_(i64* %0, i64* %1, i64* %2, %"class.std::allocator.3"* %3) #1 !dbg !855 {
  %5 = alloca %"class.std::move_iterator", i64 1, align 8
  %6 = alloca %"class.std::move_iterator", i64 1, align 8
  %7 = alloca %"class.std::move_iterator", i64 1, align 8
  %8 = alloca %"class.std::move_iterator", i64 1, align 8
  %9 = call %"class.std::move_iterator" @_ZSt32__make_move_if_noexcept_iteratorImSt13move_iteratorIPmEET0_PT_(i64* %0), !dbg !856
  store %"class.std::move_iterator" %9, %"class.std::move_iterator"* %7, align 8, !dbg !856
  call void @_ZNSt13move_iteratorIPmEC1EOS1_(%"class.std::move_iterator"* %8, %"class.std::move_iterator"* %7), !dbg !856
  %10 = call %"class.std::move_iterator" @_ZSt32__make_move_if_noexcept_iteratorImSt13move_iteratorIPmEET0_PT_(i64* %1), !dbg !856
  store %"class.std::move_iterator" %10, %"class.std::move_iterator"* %5, align 8, !dbg !856
  call void @_ZNSt13move_iteratorIPmEC1EOS1_(%"class.std::move_iterator"* %6, %"class.std::move_iterator"* %5), !dbg !856
  %11 = load %"class.std::move_iterator", %"class.std::move_iterator"* %8, align 8, !dbg !858
  %12 = load %"class.std::move_iterator", %"class.std::move_iterator"* %6, align 8, !dbg !858
  %13 = call i64* @_ZSt22__uninitialized_copy_aISt13move_iteratorIPmES1_mET0_T_S4_S3_RSaIT1_E(%"class.std::move_iterator" %11, %"class.std::move_iterator" %12, i64* %2, %"class.std::allocator.3"* %3), !dbg !858
  ret i64* %13, !dbg !860
}

define linkonce_odr void @_ZN9__gnu_cxx17__normal_iteratorIPmSt6vectorImSaImEEEC1ERKS1_(%"class.__gnu_cxx::__normal_iterator.13"* %0, i64** %1) #1 !dbg !861 {
  %3 = load i64*, i64** %1, align 8, !dbg !862
  %4 = getelementptr %"class.__gnu_cxx::__normal_iterator.13", %"class.__gnu_cxx::__normal_iterator.13"* %0, i32 0, i32 0, !dbg !864
  store i64* %3, i64** %4, align 8, !dbg !864
  ret void, !dbg !865
}

define linkonce_odr i64 @_ZNKSt6vectorIiSaIiEE8max_sizeEv(%"class.std::vector"* %0) #1 !dbg !866 {
  %2 = getelementptr %"class.std::vector", %"class.std::vector"* %0, i32 0, i32 0, !dbg !867
  %3 = call %"class.std::allocator"* @_ZNKSt12_Vector_baseIiSaIiEE19_M_get_Tp_allocatorEv(%"struct.std::_Vector_base"* %2), !dbg !867
  %4 = call i64 @_ZNSt6vectorIiSaIiEE11_S_max_sizeERKS0_(%"class.std::allocator"* %3), !dbg !869
  ret i64 %4, !dbg !870
}

define linkonce_odr i64 @_ZNKSt6vectorIiSaIiEE8capacityEv(%"class.std::vector"* %0) #1 !dbg !871 {
  %2 = getelementptr %"class.std::vector", %"class.std::vector"* %0, i32 0, i32 0, !dbg !872
  %3 = getelementptr %"struct.std::_Vector_base", %"struct.std::_Vector_base"* %2, i32 0, i32 0, !dbg !874
  %4 = getelementptr %"struct.std::_Vector_base<int, std::allocator<int>>::_Vector_impl", %"struct.std::_Vector_base<int, std::allocator<int>>::_Vector_impl"* %3, i32 0, i32 0, !dbg !872
  %5 = getelementptr %"struct.std::_Vector_base<int, std::allocator<int>>::_Vector_impl_data", %"struct.std::_Vector_base<int, std::allocator<int>>::_Vector_impl_data"* %4, i32 0, i32 2, !dbg !875
  %6 = load i32*, i32** %5, align 8, !dbg !872
  %7 = getelementptr %"struct.std::_Vector_base<int, std::allocator<int>>::_Vector_impl_data", %"struct.std::_Vector_base<int, std::allocator<int>>::_Vector_impl_data"* %4, i32 0, i32 0, !dbg !876
  %8 = load i32*, i32** %7, align 8, !dbg !877
  %9 = ptrtoint i32* %8 to i64, !dbg !878
  %10 = ptrtoint i32* %6 to i64, !dbg !878
  %11 = sub i64 %10, %9, !dbg !878
  %12 = sdiv i64 %11, 4, !dbg !878
  ret i64 %12, !dbg !879
}

define linkonce_odr i32* @_ZNSt6vectorIiSaIiEE20_M_allocate_and_copyISt13move_iteratorIPiEEES4_mT_S6_(%"class.std::vector"* %0, i64 %1, %"class.std::move_iterator.14" %2, %"class.std::move_iterator.14" %3) #1 !dbg !880 {
  %5 = alloca %"class.std::move_iterator.14", i64 1, align 8
  %6 = alloca %"class.std::move_iterator.14", i64 1, align 8
  %7 = alloca %"class.std::move_iterator.14", i64 1, align 8, !dbg !881
  %8 = alloca %"class.std::move_iterator.14", i64 1, align 8, !dbg !883
  store %"class.std::move_iterator.14" %2, %"class.std::move_iterator.14"* %8, align 8, !dbg !883
  store %"class.std::move_iterator.14" %3, %"class.std::move_iterator.14"* %7, align 8, !dbg !881
  %9 = getelementptr %"class.std::vector", %"class.std::vector"* %0, i32 0, i32 0, !dbg !884
  %10 = call i32* @_ZNSt12_Vector_baseIiSaIiEE11_M_allocateEm(%"struct.std::_Vector_base"* %9, i64 %1), !dbg !885
  call void @_ZNSt13move_iteratorIPiEC1ERKS1_(%"class.std::move_iterator.14"* %6, %"class.std::move_iterator.14"* %8), !dbg !886
  call void @_ZNSt13move_iteratorIPiEC1ERKS1_(%"class.std::move_iterator.14"* %5, %"class.std::move_iterator.14"* %7), !dbg !887
  %11 = call %"class.std::allocator"* @_ZNSt12_Vector_baseIiSaIiEE19_M_get_Tp_allocatorEv(%"struct.std::_Vector_base"* %9), !dbg !888
  %12 = load %"class.std::move_iterator.14", %"class.std::move_iterator.14"* %6, align 8, !dbg !889
  %13 = load %"class.std::move_iterator.14", %"class.std::move_iterator.14"* %5, align 8, !dbg !889
  %14 = call i32* @_ZSt22__uninitialized_copy_aISt13move_iteratorIPiES1_iET0_T_S4_S3_RSaIT1_E(%"class.std::move_iterator.14" %12, %"class.std::move_iterator.14" %13, i32* %10, %"class.std::allocator"* %11), !dbg !889
  ret i32* %10, !dbg !890
}

define linkonce_odr void @_ZNSt13move_iteratorIPiEC1EOS1_(%"class.std::move_iterator.14"* %0, %"class.std::move_iterator.14"* %1) #1 !dbg !891 {
  %3 = getelementptr %"class.std::move_iterator.14", %"class.std::move_iterator.14"* %1, i32 0, i32 0, !dbg !892
  %4 = load i32*, i32** %3, align 8, !dbg !892
  %5 = getelementptr %"class.std::move_iterator.14", %"class.std::move_iterator.14"* %0, i32 0, i32 0, !dbg !892
  store i32* %4, i32** %5, align 8, !dbg !892
  ret void, !dbg !892
}

define linkonce_odr %"class.std::move_iterator.14" @_ZSt32__make_move_if_noexcept_iteratorIiSt13move_iteratorIPiEET0_PT_(i32* %0) #1 !dbg !894 {
  %2 = alloca %"class.std::move_iterator.14", i64 1, align 8
  %3 = alloca %"class.std::move_iterator.14", i64 1, align 8
  %4 = alloca %"class.std::move_iterator.14", i64 1, align 8
  call void @_ZNSt13move_iteratorIPiEC1ES0_(%"class.std::move_iterator.14"* %3, i32* %0), !dbg !895
  %5 = load %"class.std::move_iterator.14", %"class.std::move_iterator.14"* %3, align 8, !dbg !895
  store %"class.std::move_iterator.14" %5, %"class.std::move_iterator.14"* %2, align 8, !dbg !895
  call void @_ZNSt13move_iteratorIPiEC1EOS1_(%"class.std::move_iterator.14"* %4, %"class.std::move_iterator.14"* %2), !dbg !895
  %6 = load %"class.std::move_iterator.14", %"class.std::move_iterator.14"* %4, align 8, !dbg !897
  ret %"class.std::move_iterator.14" %6, !dbg !898
}

define linkonce_odr i64* @_ZSt3maxImERKT_S2_S2_(i64* %0, i64* %1) #1 !dbg !899 {
  %3 = load i64, i64* %0, align 8, !dbg !900
  %4 = load i64, i64* %1, align 8, !dbg !902
  %5 = icmp slt i64 %3, %4, !dbg !903
  %6 = select i1 %5, i64* %1, i64* %0, !dbg !904
  ret i64* %6, !dbg !905
}

define linkonce_odr i32* @_ZNSt16allocator_traitsISaIiEE8allocateERS0_m(%"class.std::allocator"* %0, i64 %1) #1 !dbg !906 {
  %3 = bitcast %"class.std::allocator"* %0 to %"class.__gnu_cxx::new_allocator"*, !dbg !907
  %4 = call i32* @_ZN9__gnu_cxx13new_allocatorIiE8allocateEmPKv(%"class.__gnu_cxx::new_allocator"* %3, i64 %1, i8* null), !dbg !909
  ret i32* %4, !dbg !910
}

define linkonce_odr i8 @_ZNSt6vectorIiSaIiEE19_S_nothrow_relocateESt17integral_constantIbLb1EE(%"struct.std::integral_constant" %0) #1 !dbg !911 {
  ret i8 1, !dbg !912
}

define linkonce_odr i32* @_ZNSt6vectorIiSaIiEE14_S_do_relocateEPiS2_S2_RS0_St17integral_constantIbLb1EE(i32* %0, i32* %1, i32* %2, %"class.std::allocator"* %3, %"struct.std::integral_constant" %4) #1 !dbg !914 {
  %6 = call i32* @_ZSt14__relocate_a_1IiiENSt9enable_ifIXsr3std24__is_bitwise_relocatableIT_EE5valueEPS1_E4typeES2_S2_S2_RSaIT0_E(i32* %0, i32* %1, i32* %2, %"class.std::allocator"* %3), !dbg !915
  ret i32* %6, !dbg !919
}

define linkonce_odr i32* @_ZSt22__uninitialized_copy_aISt13move_iteratorIPiES1_iET0_T_S4_S3_RSaIT1_E(%"class.std::move_iterator.14" %0, %"class.std::move_iterator.14" %1, i32* %2, %"class.std::allocator"* %3) #1 !dbg !920 {
  %5 = alloca %"class.std::move_iterator.14", i64 1, align 8
  %6 = alloca %"class.std::move_iterator.14", i64 1, align 8
  %7 = alloca %"class.std::move_iterator.14", i64 1, align 8, !dbg !921
  %8 = alloca %"class.std::move_iterator.14", i64 1, align 8, !dbg !923
  store %"class.std::move_iterator.14" %0, %"class.std::move_iterator.14"* %8, align 8, !dbg !923
  store %"class.std::move_iterator.14" %1, %"class.std::move_iterator.14"* %7, align 8, !dbg !921
  call void @_ZNSt13move_iteratorIPiEC1ERKS1_(%"class.std::move_iterator.14"* %6, %"class.std::move_iterator.14"* %8), !dbg !924
  call void @_ZNSt13move_iteratorIPiEC1ERKS1_(%"class.std::move_iterator.14"* %5, %"class.std::move_iterator.14"* %7), !dbg !925
  %9 = load %"class.std::move_iterator.14", %"class.std::move_iterator.14"* %6, align 8, !dbg !926
  %10 = load %"class.std::move_iterator.14", %"class.std::move_iterator.14"* %5, align 8, !dbg !926
  %11 = call i32* @_ZSt18uninitialized_copyISt13move_iteratorIPiES1_ET0_T_S4_S3_(%"class.std::move_iterator.14" %9, %"class.std::move_iterator.14" %10, i32* %2), !dbg !926
  ret i32* %11, !dbg !927
}

define linkonce_odr void @_ZSt8_DestroyIPiEvT_S1_(i32* %0, i32* %1) #1 !dbg !928 {
  ret void, !dbg !929
}

define linkonce_odr void @_ZNSt16allocator_traitsISaIiEE10deallocateERS0_Pim(%"class.std::allocator"* %0, i32* %1, i64 %2) #1 !dbg !931 {
  %4 = bitcast %"class.std::allocator"* %0 to %"class.__gnu_cxx::new_allocator"*, !dbg !932
  call void @_ZN9__gnu_cxx13new_allocatorIiE10deallocateEPim(%"class.__gnu_cxx::new_allocator"* %4, i32* %1, i64 %2), !dbg !934
  ret void, !dbg !935
}

define linkonce_odr void @_ZN9__gnu_cxx13new_allocatorIiEC1Ev(%"class.__gnu_cxx::new_allocator"* %0) #1 !dbg !936 {
  ret void, !dbg !937
}

define linkonce_odr void @_ZNSaImEC1Ev(%"class.std::allocator.3"* %0) #1 !dbg !939 {
  ret void, !dbg !940
}

define linkonce_odr void @_ZNSt12_Vector_baseImSaImEE17_Vector_impl_dataC1Ev(%"struct.std::_Vector_base<unsigned long, std::allocator<unsigned long>>::_Vector_impl_data"* %0) #1 !dbg !942 {
  %2 = getelementptr %"struct.std::_Vector_base<unsigned long, std::allocator<unsigned long>>::_Vector_impl_data", %"struct.std::_Vector_base<unsigned long, std::allocator<unsigned long>>::_Vector_impl_data"* %0, i32 0, i32 0, !dbg !943
  store i64* null, i64** %2, align 8, !dbg !943
  %3 = getelementptr %"struct.std::_Vector_base<unsigned long, std::allocator<unsigned long>>::_Vector_impl_data", %"struct.std::_Vector_base<unsigned long, std::allocator<unsigned long>>::_Vector_impl_data"* %0, i32 0, i32 1, !dbg !943
  store i64* null, i64** %3, align 8, !dbg !943
  %4 = getelementptr %"struct.std::_Vector_base<unsigned long, std::allocator<unsigned long>>::_Vector_impl_data", %"struct.std::_Vector_base<unsigned long, std::allocator<unsigned long>>::_Vector_impl_data"* %0, i32 0, i32 2, !dbg !943
  store i64* null, i64** %4, align 8, !dbg !943
  ret void, !dbg !945
}

define linkonce_odr i64 @_ZNSt16allocator_traitsISaImEE8max_sizeERKS0_(%"class.std::allocator.3"* %0) #1 !dbg !946 {
  ret i64 1152921504606846975, !dbg !947
}

define linkonce_odr i64* @_ZN9__gnu_cxx13new_allocatorImE8allocateEmPKv(%"class.__gnu_cxx::new_allocator.4"* %0, i64 %1, i8* %2) #1 !dbg !949 {
  %4 = icmp sgt i64 %1, 1152921504606846975, !dbg !950
  br i1 %4, label %5, label %6, !dbg !952

5:                                                ; preds = %3
  call void @_ZSt17__throw_bad_allocv(), !dbg !953
  br label %6, !dbg !952

6:                                                ; preds = %5, %3
  %7 = mul i64 %1, 8, !dbg !954
  %8 = call i8* @_Znwm(i64 %7), !dbg !955
  %9 = bitcast i8* %8 to i64*, !dbg !956
  ret i64* %9, !dbg !957
}

define linkonce_odr i64* @_ZSt12__relocate_aIPmS0_SaImEET0_T_S3_S2_RT1_(i64* %0, i64* %1, i64* %2, %"class.std::allocator.3"* %3) #1 !dbg !958 {
  %5 = call i64* @_ZSt14__relocate_a_1ImmENSt9enable_ifIXsr3std24__is_bitwise_relocatableIT_EE5valueEPS1_E4typeES2_S2_S2_RSaIT0_E(i64* %0, i64* %1, i64* %2, %"class.std::allocator.3"* %3), !dbg !959
  ret i64* %5, !dbg !961
}

define linkonce_odr i64* @_ZSt18uninitialized_copyISt13move_iteratorIPmES1_ET0_T_S4_S3_(%"class.std::move_iterator" %0, %"class.std::move_iterator" %1, i64* %2) #1 !dbg !962 {
  %4 = alloca %"class.std::move_iterator", i64 1, align 8
  %5 = alloca %"class.std::move_iterator", i64 1, align 8
  %6 = alloca %"class.std::move_iterator", i64 1, align 8, !dbg !963
  %7 = alloca %"class.std::move_iterator", i64 1, align 8, !dbg !965
  store %"class.std::move_iterator" %0, %"class.std::move_iterator"* %7, align 8, !dbg !965
  store %"class.std::move_iterator" %1, %"class.std::move_iterator"* %6, align 8, !dbg !963
  call void @_ZNSt13move_iteratorIPmEC1ERKS1_(%"class.std::move_iterator"* %5, %"class.std::move_iterator"* %7), !dbg !966
  call void @_ZNSt13move_iteratorIPmEC1ERKS1_(%"class.std::move_iterator"* %4, %"class.std::move_iterator"* %6), !dbg !967
  %8 = load %"class.std::move_iterator", %"class.std::move_iterator"* %5, align 8, !dbg !968
  %9 = load %"class.std::move_iterator", %"class.std::move_iterator"* %4, align 8, !dbg !968
  %10 = call i64* @_ZNSt20__uninitialized_copyILb1EE13__uninit_copyISt13move_iteratorIPmES3_EET0_T_S6_S5_(%"class.std::move_iterator" %8, %"class.std::move_iterator" %9, i64* %2), !dbg !968
  ret i64* %10, !dbg !969
}

define linkonce_odr void @_ZNSt12_Destroy_auxILb1EE9__destroyIPmEEvT_S3_(i64* %0, i64* %1) #1 !dbg !970 {
  ret void, !dbg !971
}

define linkonce_odr void @_ZN9__gnu_cxx13new_allocatorImE10deallocateEPmm(%"class.__gnu_cxx::new_allocator.4"* %0, i64* %1, i64 %2) #1 !dbg !973 {
  %4 = bitcast i64* %1 to i8*, !dbg !974
  call void @_ZdlPv(i8* %4), !dbg !976
  ret void, !dbg !977
}

define linkonce_odr i64 @_ZNSt6vectorIiSaIiEE11_S_max_sizeERKS0_(%"class.std::allocator"* %0) #1 !dbg !978 {
  %2 = alloca i64, i64 1, align 8, !dbg !979
  store i64 undef, i64* %2, align 8, !dbg !979
  %3 = alloca i64, i64 1, align 8, !dbg !981
  store i64 undef, i64* %3, align 8, !dbg !981
  store i64 2305843009213693951, i64* %3, align 8, !dbg !981
  store i64 2305843009213693951, i64* %2, align 8, !dbg !979
  %4 = call i64* @_ZSt3minImERKT_S2_S2_(i64* %3, i64* %2), !dbg !982
  %5 = load i64, i64* %4, align 8, !dbg !982
  ret i64 %5, !dbg !983
}

define linkonce_odr %"class.std::allocator"* @_ZNKSt12_Vector_baseIiSaIiEE19_M_get_Tp_allocatorEv(%"struct.std::_Vector_base"* %0) #1 !dbg !984 {
  %2 = getelementptr %"struct.std::_Vector_base", %"struct.std::_Vector_base"* %0, i32 0, i32 0, !dbg !985
  %3 = bitcast %"struct.std::_Vector_base<int, std::allocator<int>>::_Vector_impl"* %2 to %"class.std::allocator"*, !dbg !987
  %4 = icmp ne %"class.std::allocator"* %3, null, !dbg !987
  %5 = select i1 %4, %"class.std::allocator"* %3, %"class.std::allocator"* null, !dbg !987
  ret %"class.std::allocator"* %5, !dbg !988
}

define linkonce_odr void @_ZNSt13move_iteratorIPiEC1ERKS1_(%"class.std::move_iterator.14"* %0, %"class.std::move_iterator.14"* %1) #1 !dbg !989 {
  %3 = getelementptr %"class.std::move_iterator.14", %"class.std::move_iterator.14"* %1, i32 0, i32 0, !dbg !990
  %4 = load i32*, i32** %3, align 8, !dbg !990
  %5 = getelementptr %"class.std::move_iterator.14", %"class.std::move_iterator.14"* %0, i32 0, i32 0, !dbg !990
  store i32* %4, i32** %5, align 8, !dbg !990
  ret void, !dbg !990
}

define linkonce_odr void @_ZNSt13move_iteratorIPiEC1ES0_(%"class.std::move_iterator.14"* %0, i32* %1) #1 !dbg !992 {
  %3 = getelementptr %"class.std::move_iterator.14", %"class.std::move_iterator.14"* %0, i32 0, i32 0, !dbg !993
  store i32* %1, i32** %3, align 8, !dbg !993
  ret void, !dbg !995
}

define linkonce_odr i32* @_ZN9__gnu_cxx13new_allocatorIiE8allocateEmPKv(%"class.__gnu_cxx::new_allocator"* %0, i64 %1, i8* %2) #1 !dbg !996 {
  %4 = icmp sgt i64 %1, 2305843009213693951, !dbg !997
  br i1 %4, label %5, label %6, !dbg !999

5:                                                ; preds = %3
  call void @_ZSt17__throw_bad_allocv(), !dbg !1000
  br label %6, !dbg !999

6:                                                ; preds = %5, %3
  %7 = mul i64 %1, 4, !dbg !1001
  %8 = call i8* @_Znwm(i64 %7), !dbg !1002
  %9 = bitcast i8* %8 to i32*, !dbg !1003
  ret i32* %9, !dbg !1004
}

define linkonce_odr i32* @_ZSt12__relocate_aIPiS0_SaIiEET0_T_S3_S2_RT1_(i32* %0, i32* %1, i32* %2, %"class.std::allocator"* %3) #1 !dbg !1005 {
  %5 = call i32* @_ZSt14__relocate_a_1IiiENSt9enable_ifIXsr3std24__is_bitwise_relocatableIT_EE5valueEPS1_E4typeES2_S2_S2_RSaIT0_E(i32* %0, i32* %1, i32* %2, %"class.std::allocator"* %3), !dbg !1006
  ret i32* %5, !dbg !1008
}

define linkonce_odr i32* @_ZSt18uninitialized_copyISt13move_iteratorIPiES1_ET0_T_S4_S3_(%"class.std::move_iterator.14" %0, %"class.std::move_iterator.14" %1, i32* %2) #1 !dbg !1009 {
  %4 = alloca %"class.std::move_iterator.14", i64 1, align 8
  %5 = alloca %"class.std::move_iterator.14", i64 1, align 8
  %6 = alloca %"class.std::move_iterator.14", i64 1, align 8, !dbg !1010
  %7 = alloca %"class.std::move_iterator.14", i64 1, align 8, !dbg !1012
  store %"class.std::move_iterator.14" %0, %"class.std::move_iterator.14"* %7, align 8, !dbg !1012
  store %"class.std::move_iterator.14" %1, %"class.std::move_iterator.14"* %6, align 8, !dbg !1010
  call void @_ZNSt13move_iteratorIPiEC1ERKS1_(%"class.std::move_iterator.14"* %5, %"class.std::move_iterator.14"* %7), !dbg !1013
  call void @_ZNSt13move_iteratorIPiEC1ERKS1_(%"class.std::move_iterator.14"* %4, %"class.std::move_iterator.14"* %6), !dbg !1014
  %8 = load %"class.std::move_iterator.14", %"class.std::move_iterator.14"* %5, align 8, !dbg !1015
  %9 = load %"class.std::move_iterator.14", %"class.std::move_iterator.14"* %4, align 8, !dbg !1015
  %10 = call i32* @_ZNSt20__uninitialized_copyILb1EE13__uninit_copyISt13move_iteratorIPiES3_EET0_T_S6_S5_(%"class.std::move_iterator.14" %8, %"class.std::move_iterator.14" %9, i32* %2), !dbg !1015
  ret i32* %10, !dbg !1016
}

define linkonce_odr void @_ZNSt12_Destroy_auxILb1EE9__destroyIPiEEvT_S3_(i32* %0, i32* %1) #1 !dbg !1017 {
  ret void, !dbg !1018
}

define linkonce_odr void @_ZN9__gnu_cxx13new_allocatorIiE10deallocateEPim(%"class.__gnu_cxx::new_allocator"* %0, i32* %1, i64 %2) #1 !dbg !1020 {
  %4 = bitcast i32* %1 to i8*, !dbg !1021
  call void @_ZdlPv(i8* %4), !dbg !1023
  ret void, !dbg !1024
}

define linkonce_odr void @_ZN9__gnu_cxx13new_allocatorImEC1Ev(%"class.__gnu_cxx::new_allocator.4"* %0) #1 !dbg !1025 {
  ret void, !dbg !1026
}

define linkonce_odr i64 @_ZNK9__gnu_cxx13new_allocatorImE8max_sizeEv(%"class.__gnu_cxx::new_allocator.4"* %0) #1 !dbg !1028 {
  ret i64 1152921504606846975, !dbg !1029
}

declare void @_ZSt17__throw_bad_allocv() #1

declare i8* @_Znwm(i64) #1

define linkonce_odr i64* @_ZSt14__relocate_a_1ImmENSt9enable_ifIXsr3std24__is_bitwise_relocatableIT_EE5valueEPS1_E4typeES2_S2_S2_RSaIT0_E(i64* %0, i64* %1, i64* %2, %"class.std::allocator.3"* %3) #1 !dbg !1031 {
  %5 = ptrtoint i64* %0 to i64, !dbg !1032
  %6 = ptrtoint i64* %1 to i64, !dbg !1032
  %7 = sub i64 %6, %5, !dbg !1032
  %8 = sdiv i64 %7, 8, !dbg !1032
  %9 = icmp sgt i64 %8, 0, !dbg !1034
  br i1 %9, label %10, label %14, !dbg !1035

10:                                               ; preds = %4
  %11 = bitcast i64* %2 to i8*, !dbg !1036
  %12 = bitcast i64* %0 to i8*, !dbg !1037
  %13 = mul i64 %8, 8, !dbg !1038
  call void @llvm.memmove.p0i8.p0i8.i64(i8* %11, i8* %12, i64 %13, i1 false), !dbg !1039
  br label %14, !dbg !1035

14:                                               ; preds = %10, %4
  %15 = getelementptr i64, i64* %2, i64 %8, !dbg !1040
  ret i64* %15, !dbg !1041
}

define linkonce_odr i64* @_ZSt12__niter_baseIPmET_S1_(i64* %0) #1 !dbg !1042 {
  ret i64* %0, !dbg !1043
}

define linkonce_odr i64* @_ZNSt20__uninitialized_copyILb1EE13__uninit_copyISt13move_iteratorIPmES3_EET0_T_S6_S5_(%"class.std::move_iterator" %0, %"class.std::move_iterator" %1, i64* %2) #1 !dbg !1045 {
  %4 = alloca %"class.std::move_iterator", i64 1, align 8
  %5 = alloca %"class.std::move_iterator", i64 1, align 8
  %6 = alloca %"class.std::move_iterator", i64 1, align 8, !dbg !1046
  %7 = alloca %"class.std::move_iterator", i64 1, align 8, !dbg !1048
  store %"class.std::move_iterator" %0, %"class.std::move_iterator"* %7, align 8, !dbg !1048
  store %"class.std::move_iterator" %1, %"class.std::move_iterator"* %6, align 8, !dbg !1046
  call void @_ZNSt13move_iteratorIPmEC1ERKS1_(%"class.std::move_iterator"* %5, %"class.std::move_iterator"* %7), !dbg !1049
  call void @_ZNSt13move_iteratorIPmEC1ERKS1_(%"class.std::move_iterator"* %4, %"class.std::move_iterator"* %6), !dbg !1050
  %8 = load %"class.std::move_iterator", %"class.std::move_iterator"* %5, align 8, !dbg !1051
  %9 = load %"class.std::move_iterator", %"class.std::move_iterator"* %4, align 8, !dbg !1051
  %10 = call i64* @_ZSt4copyISt13move_iteratorIPmES1_ET0_T_S4_S3_(%"class.std::move_iterator" %8, %"class.std::move_iterator" %9, i64* %2), !dbg !1051
  ret i64* %10, !dbg !1052
}

declare void @_ZdlPv(i8*) #1

define linkonce_odr i64 @_ZNSt16allocator_traitsISaIiEE8max_sizeERKS0_(%"class.std::allocator"* %0) #1 !dbg !1053 {
  ret i64 2305843009213693951, !dbg !1054
}

define linkonce_odr i64 @_ZNK9__gnu_cxx13new_allocatorIiE8max_sizeEv(%"class.__gnu_cxx::new_allocator"* %0) #1 !dbg !1056 {
  ret i64 2305843009213693951, !dbg !1057
}

define linkonce_odr i32* @_ZSt14__relocate_a_1IiiENSt9enable_ifIXsr3std24__is_bitwise_relocatableIT_EE5valueEPS1_E4typeES2_S2_S2_RSaIT0_E(i32* %0, i32* %1, i32* %2, %"class.std::allocator"* %3) #1 !dbg !1059 {
  %5 = ptrtoint i32* %0 to i64, !dbg !1060
  %6 = ptrtoint i32* %1 to i64, !dbg !1060
  %7 = sub i64 %6, %5, !dbg !1060
  %8 = sdiv i64 %7, 4, !dbg !1060
  %9 = icmp sgt i64 %8, 0, !dbg !1062
  br i1 %9, label %10, label %14, !dbg !1063

10:                                               ; preds = %4
  %11 = bitcast i32* %2 to i8*, !dbg !1064
  %12 = bitcast i32* %0 to i8*, !dbg !1065
  %13 = mul i64 %8, 4, !dbg !1066
  call void @llvm.memmove.p0i8.p0i8.i64(i8* %11, i8* %12, i64 %13, i1 false), !dbg !1067
  br label %14, !dbg !1063

14:                                               ; preds = %10, %4
  %15 = getelementptr i32, i32* %2, i64 %8, !dbg !1068
  ret i32* %15, !dbg !1069
}

define linkonce_odr i32* @_ZSt12__niter_baseIPiET_S1_(i32* %0) #1 !dbg !1070 {
  ret i32* %0, !dbg !1071
}

define linkonce_odr i32* @_ZNSt20__uninitialized_copyILb1EE13__uninit_copyISt13move_iteratorIPiES3_EET0_T_S6_S5_(%"class.std::move_iterator.14" %0, %"class.std::move_iterator.14" %1, i32* %2) #1 !dbg !1073 {
  %4 = alloca %"class.std::move_iterator.14", i64 1, align 8
  %5 = alloca %"class.std::move_iterator.14", i64 1, align 8
  %6 = alloca %"class.std::move_iterator.14", i64 1, align 8, !dbg !1074
  %7 = alloca %"class.std::move_iterator.14", i64 1, align 8, !dbg !1076
  store %"class.std::move_iterator.14" %0, %"class.std::move_iterator.14"* %7, align 8, !dbg !1076
  store %"class.std::move_iterator.14" %1, %"class.std::move_iterator.14"* %6, align 8, !dbg !1074
  call void @_ZNSt13move_iteratorIPiEC1ERKS1_(%"class.std::move_iterator.14"* %5, %"class.std::move_iterator.14"* %7), !dbg !1077
  call void @_ZNSt13move_iteratorIPiEC1ERKS1_(%"class.std::move_iterator.14"* %4, %"class.std::move_iterator.14"* %6), !dbg !1078
  %8 = load %"class.std::move_iterator.14", %"class.std::move_iterator.14"* %5, align 8, !dbg !1079
  %9 = load %"class.std::move_iterator.14", %"class.std::move_iterator.14"* %4, align 8, !dbg !1079
  %10 = call i32* @_ZSt4copyISt13move_iteratorIPiES1_ET0_T_S4_S3_(%"class.std::move_iterator.14" %8, %"class.std::move_iterator.14" %9, i32* %2), !dbg !1079
  ret i32* %10, !dbg !1080
}

define linkonce_odr i64* @_ZSt4copyISt13move_iteratorIPmES1_ET0_T_S4_S3_(%"class.std::move_iterator" %0, %"class.std::move_iterator" %1, i64* %2) #1 !dbg !1081 {
  %4 = alloca %"class.std::move_iterator", i64 1, align 8
  %5 = alloca %"class.std::move_iterator", i64 1, align 8
  %6 = alloca %"class.std::move_iterator", i64 1, align 8, !dbg !1082
  %7 = alloca %"class.std::move_iterator", i64 1, align 8, !dbg !1084
  store %"class.std::move_iterator" %0, %"class.std::move_iterator"* %7, align 8, !dbg !1084
  store %"class.std::move_iterator" %1, %"class.std::move_iterator"* %6, align 8, !dbg !1082
  call void @_ZNSt13move_iteratorIPmEC1ERKS1_(%"class.std::move_iterator"* %5, %"class.std::move_iterator"* %7), !dbg !1085
  %8 = load %"class.std::move_iterator", %"class.std::move_iterator"* %5, align 8, !dbg !1086
  %9 = call i64* @_ZSt12__miter_baseIPmEDTcl12__miter_basecldtfp_4baseEEESt13move_iteratorIT_E(%"class.std::move_iterator" %8), !dbg !1086
  call void @_ZNSt13move_iteratorIPmEC1ERKS1_(%"class.std::move_iterator"* %4, %"class.std::move_iterator"* %6), !dbg !1087
  %10 = load %"class.std::move_iterator", %"class.std::move_iterator"* %4, align 8, !dbg !1088
  %11 = call i64* @_ZSt12__miter_baseIPmEDTcl12__miter_basecldtfp_4baseEEESt13move_iteratorIT_E(%"class.std::move_iterator" %10), !dbg !1088
  %12 = call i64* @_ZSt14__copy_move_a2ILb1EPmS0_ET1_T0_S2_S1_(i64* %9, i64* %11, i64* %2), !dbg !1089
  ret i64* %12, !dbg !1090
}

define linkonce_odr i32* @_ZSt4copyISt13move_iteratorIPiES1_ET0_T_S4_S3_(%"class.std::move_iterator.14" %0, %"class.std::move_iterator.14" %1, i32* %2) #1 !dbg !1091 {
  %4 = alloca %"class.std::move_iterator.14", i64 1, align 8
  %5 = alloca %"class.std::move_iterator.14", i64 1, align 8
  %6 = alloca %"class.std::move_iterator.14", i64 1, align 8, !dbg !1092
  %7 = alloca %"class.std::move_iterator.14", i64 1, align 8, !dbg !1094
  store %"class.std::move_iterator.14" %0, %"class.std::move_iterator.14"* %7, align 8, !dbg !1094
  store %"class.std::move_iterator.14" %1, %"class.std::move_iterator.14"* %6, align 8, !dbg !1092
  call void @_ZNSt13move_iteratorIPiEC1ERKS1_(%"class.std::move_iterator.14"* %5, %"class.std::move_iterator.14"* %7), !dbg !1095
  %8 = load %"class.std::move_iterator.14", %"class.std::move_iterator.14"* %5, align 8, !dbg !1096
  %9 = call i32* @_ZSt12__miter_baseIPiEDTcl12__miter_basecldtfp_4baseEEESt13move_iteratorIT_E(%"class.std::move_iterator.14" %8), !dbg !1096
  call void @_ZNSt13move_iteratorIPiEC1ERKS1_(%"class.std::move_iterator.14"* %4, %"class.std::move_iterator.14"* %6), !dbg !1097
  %10 = load %"class.std::move_iterator.14", %"class.std::move_iterator.14"* %4, align 8, !dbg !1098
  %11 = call i32* @_ZSt12__miter_baseIPiEDTcl12__miter_basecldtfp_4baseEEESt13move_iteratorIT_E(%"class.std::move_iterator.14" %10), !dbg !1098
  %12 = call i32* @_ZSt14__copy_move_a2ILb1EPiS0_ET1_T0_S2_S1_(i32* %9, i32* %11, i32* %2), !dbg !1099
  ret i32* %12, !dbg !1100
}

define linkonce_odr i64* @_ZSt14__copy_move_a2ILb1EPmS0_ET1_T0_S2_S1_(i64* %0, i64* %1, i64* %2) #1 !dbg !1101 {
  %4 = call i64* @_ZNSt11__copy_moveILb1ELb1ESt26random_access_iterator_tagE8__copy_mImEEPT_PKS3_S6_S4_(i64* %0, i64* %1, i64* %2), !dbg !1102
  ret i64* %4, !dbg !1105
}

define linkonce_odr i64* @_ZSt12__miter_baseIPmEDTcl12__miter_basecldtfp_4baseEEESt13move_iteratorIT_E(%"class.std::move_iterator" %0) #1 !dbg !1106 {
  %2 = alloca %"class.std::move_iterator", i64 1, align 8, !dbg !1107
  store %"class.std::move_iterator" %0, %"class.std::move_iterator"* %2, align 8, !dbg !1107
  %3 = call i64* @_ZNKSt13move_iteratorIPmE4baseEv(%"class.std::move_iterator"* %2), !dbg !1109
  ret i64* %3, !dbg !1110
}

define linkonce_odr i32* @_ZSt14__copy_move_a2ILb1EPiS0_ET1_T0_S2_S1_(i32* %0, i32* %1, i32* %2) #1 !dbg !1111 {
  %4 = call i32* @_ZNSt11__copy_moveILb1ELb1ESt26random_access_iterator_tagE8__copy_mIiEEPT_PKS3_S6_S4_(i32* %0, i32* %1, i32* %2), !dbg !1112
  ret i32* %4, !dbg !1115
}

define linkonce_odr i32* @_ZSt12__miter_baseIPiEDTcl12__miter_basecldtfp_4baseEEESt13move_iteratorIT_E(%"class.std::move_iterator.14" %0) #1 !dbg !1116 {
  %2 = alloca %"class.std::move_iterator.14", i64 1, align 8, !dbg !1117
  store %"class.std::move_iterator.14" %0, %"class.std::move_iterator.14"* %2, align 8, !dbg !1117
  %3 = call i32* @_ZNKSt13move_iteratorIPiE4baseEv(%"class.std::move_iterator.14"* %2), !dbg !1119
  ret i32* %3, !dbg !1120
}

define linkonce_odr i64* @_ZSt12__niter_wrapIPmET_RKS1_S1_(i64** %0, i64* %1) #1 !dbg !1121 {
  ret i64* %1, !dbg !1122
}

define linkonce_odr i64* @_ZSt13__copy_move_aILb1EPmS0_ET1_T0_S2_S1_(i64* %0, i64* %1, i64* %2) #1 !dbg !1124 {
  %4 = call i64* @_ZNSt11__copy_moveILb1ELb1ESt26random_access_iterator_tagE8__copy_mImEEPT_PKS3_S6_S4_(i64* %0, i64* %1, i64* %2), !dbg !1125
  ret i64* %4, !dbg !1127
}

define linkonce_odr i64* @_ZSt12__miter_baseIPmET_S1_(i64* %0) #1 !dbg !1128 {
  ret i64* %0, !dbg !1130
}

define linkonce_odr i64* @_ZNKSt13move_iteratorIPmE4baseEv(%"class.std::move_iterator"* %0) #1 !dbg !1132 {
  %2 = getelementptr %"class.std::move_iterator", %"class.std::move_iterator"* %0, i32 0, i32 0, !dbg !1133
  %3 = load i64*, i64** %2, align 8, !dbg !1133
  ret i64* %3, !dbg !1135
}

define linkonce_odr i32* @_ZSt12__niter_wrapIPiET_RKS1_S1_(i32** %0, i32* %1) #1 !dbg !1136 {
  ret i32* %1, !dbg !1137
}

define linkonce_odr i32* @_ZSt13__copy_move_aILb1EPiS0_ET1_T0_S2_S1_(i32* %0, i32* %1, i32* %2) #1 !dbg !1139 {
  %4 = call i32* @_ZNSt11__copy_moveILb1ELb1ESt26random_access_iterator_tagE8__copy_mIiEEPT_PKS3_S6_S4_(i32* %0, i32* %1, i32* %2), !dbg !1140
  ret i32* %4, !dbg !1142
}

define linkonce_odr i32* @_ZSt12__miter_baseIPiET_S1_(i32* %0) #1 !dbg !1143 {
  ret i32* %0, !dbg !1144
}

define linkonce_odr i32* @_ZNKSt13move_iteratorIPiE4baseEv(%"class.std::move_iterator.14"* %0) #1 !dbg !1146 {
  %2 = getelementptr %"class.std::move_iterator.14", %"class.std::move_iterator.14"* %0, i32 0, i32 0, !dbg !1147
  %3 = load i32*, i32** %2, align 8, !dbg !1147
  ret i32* %3, !dbg !1149
}

define linkonce_odr i64* @_ZNSt11__copy_moveILb1ELb1ESt26random_access_iterator_tagE8__copy_mImEEPT_PKS3_S6_S4_(i64* %0, i64* %1, i64* %2) #1 !dbg !1150 {
  %4 = ptrtoint i64* %0 to i64, !dbg !1151
  %5 = ptrtoint i64* %1 to i64, !dbg !1151
  %6 = sub i64 %5, %4, !dbg !1151
  %7 = sdiv i64 %6, 8, !dbg !1151
  %8 = icmp ne i64 %7, 0, !dbg !1153
  br i1 %8, label %9, label %13, !dbg !1154

9:                                                ; preds = %3
  %10 = bitcast i64* %2 to i8*, !dbg !1155
  %11 = bitcast i64* %0 to i8*, !dbg !1156
  %12 = mul i64 %7, 8, !dbg !1157
  call void @llvm.memmove.p0i8.p0i8.i64(i8* %10, i8* %11, i64 %12, i1 false), !dbg !1158
  br label %13, !dbg !1154

13:                                               ; preds = %9, %3
  %14 = getelementptr i64, i64* %2, i64 %7, !dbg !1159
  ret i64* %14, !dbg !1160
}

define linkonce_odr i32* @_ZNSt11__copy_moveILb1ELb1ESt26random_access_iterator_tagE8__copy_mIiEEPT_PKS3_S6_S4_(i32* %0, i32* %1, i32* %2) #1 !dbg !1161 {
  %4 = ptrtoint i32* %0 to i64, !dbg !1162
  %5 = ptrtoint i32* %1 to i64, !dbg !1162
  %6 = sub i64 %5, %4, !dbg !1162
  %7 = sdiv i64 %6, 4, !dbg !1162
  %8 = icmp ne i64 %7, 0, !dbg !1164
  br i1 %8, label %9, label %13, !dbg !1165

9:                                                ; preds = %3
  %10 = bitcast i32* %2 to i8*, !dbg !1166
  %11 = bitcast i32* %0 to i8*, !dbg !1167
  %12 = mul i64 %7, 4, !dbg !1168
  call void @llvm.memmove.p0i8.p0i8.i64(i8* %10, i8* %11, i64 %12, i1 false), !dbg !1169
  br label %13, !dbg !1165

13:                                               ; preds = %9, %3
  %14 = getelementptr i32, i32* %2, i64 %7, !dbg !1170
  ret i32* %14, !dbg !1171
}

; Function Attrs: argmemonly nocallback nofree nounwind willreturn writeonly
declare void @llvm.memset.p0i8.i64(i8* nocapture writeonly, i8, i64, i1 immarg) #2

; Function Attrs: argmemonly nocallback nofree nounwind willreturn
declare void @llvm.memmove.p0i8.p0i8.i64(i8* nocapture writeonly, i8* nocapture readonly, i64, i1 immarg) #3

attributes #0 = { inaccessiblememonly mustprogress nofree nounwind willreturn "target-cpu"="x86-64" "target-features"="+cx8,+fxsr,+mmx,+sse,+sse2,+x87" "tune-cpu"="generic" }
attributes #1 = { "target-cpu"="x86-64" "target-features"="+cx8,+fxsr,+mmx,+sse,+sse2,+x87" "tune-cpu"="generic" }
attributes #2 = { argmemonly nocallback nofree nounwind willreturn writeonly "target-cpu"="x86-64" "target-features"="+cx8,+fxsr,+mmx,+sse,+sse2,+x87" "tune-cpu"="generic" }
attributes #3 = { argmemonly nocallback nofree nounwind willreturn "target-cpu"="x86-64" "target-features"="+cx8,+fxsr,+mmx,+sse,+sse2,+x87" "tune-cpu"="generic" }

!llvm.dbg.cu = !{!0}
!llvm.module.flags = !{!2}

!0 = distinct !DICompileUnit(language: DW_LANG_C, file: !1, producer: "mlir", isOptimized: true, runtimeVersion: 0, emissionKind: FullDebug)
!1 = !DIFile(filename: "LLVMDialectModule", directory: "/")
!2 = !{i32 2, !"Debug Info Version", i32 3}
!3 = distinct !DISubprogram(name: "main", linkageName: "main", scope: null, file: !4, line: 98, type: !5, scopeLine: 98, spFlags: DISPFlagDefinition | DISPFlagOptimized, unit: !0, retainedNodes: !6)
!4 = !DIFile(filename: "app/main_step4.cc", directory: "/home/wuklab/AIFM/aifm/DataFrame/original")
!5 = !DISubroutineType(types: !6)
!6 = !{}
!7 = !DILocation(line: 100, column: 5, scope: !8)
!8 = !DILexicalBlockFile(scope: !3, file: !4, discriminator: 0)
!9 = !DILocation(line: 100, column: 56, scope: !8)
!10 = !DILocation(line: 101, column: 18, scope: !8)
!11 = !DILocation(line: 102, column: 16, scope: !8)
!12 = !DILocation(line: 102, column: 14, scope: !8)
!13 = !DILocation(line: 103, column: 5, scope: !8)
!14 = !DILocation(line: 104, column: 5, scope: !8)
!15 = !DILocation(line: 104, column: 16, scope: !8)
!16 = !DILocation(line: 104, column: 14, scope: !8)
!17 = !DILocation(line: 106, column: 72, scope: !8)
!18 = !DILocation(line: 106, column: 63, scope: !8)
!19 = !DILocation(line: 106, column: 9, scope: !8)
!20 = !DILocation(line: 107, column: 10, scope: !8)
!21 = !DILocation(line: 105, column: 5, scope: !8)
!22 = !DILocation(line: 108, column: 1, scope: !8)
!23 = distinct !DISubprogram(name: "_ZNSt6chrono10time_pointINS_3_V212steady_clockENS_8durationIlSt5ratioILl1ELl1000000000EEEEEC1Ev", linkageName: "_ZNSt6chrono10time_pointINS_3_V212steady_clockENS_8durationIlSt5ratioILl1ELl1000000000EEEEEC1Ev", scope: null, file: !24, line: 633, type: !5, scopeLine: 633, spFlags: DISPFlagDefinition | DISPFlagOptimized, unit: !0, retainedNodes: !6)
!24 = !DIFile(filename: "/../lib/gcc/x86_64-linux-gnu/9/../../../../include/c++/9/chrono", directory: "")
!25 = !DILocation(line: 633, column: 31, scope: !26)
!26 = !DILexicalBlockFile(scope: !23, file: !24, discriminator: 0)
!27 = !DILocation(line: 633, column: 27, scope: !26)
!28 = !DILocation(line: 633, column: 2, scope: !26)
!29 = !DILocation(line: 634, column: 4, scope: !26)
!30 = distinct !DISubprogram(name: "_ZNSt6chrono10time_pointINS_3_V212steady_clockENS_8durationIlSt5ratioILl1ELl1000000000EEEEEaSEOS7_", linkageName: "_ZNSt6chrono10time_pointINS_3_V212steady_clockENS_8durationIlSt5ratioILl1ELl1000000000EEEEEaSEOS7_", scope: null, file: !24, line: 626, type: !5, scopeLine: 626, spFlags: DISPFlagDefinition | DISPFlagOptimized, unit: !0, retainedNodes: !6)
!31 = !DILocation(line: 626, column: 14, scope: !32)
!32 = !DILexicalBlockFile(scope: !30, file: !24, discriminator: 0)
!33 = distinct !DISubprogram(name: "_Z41calculate_distribution_store_and_fwd_flagv", linkageName: "_Z41calculate_distribution_store_and_fwd_flagv", scope: null, file: !4, line: 64, type: !5, scopeLine: 64, spFlags: DISPFlagDefinition | DISPFlagOptimized, unit: !0, retainedNodes: !6)
!34 = !DILocation(line: 92, column: 26, scope: !35)
!35 = !DILexicalBlockFile(scope: !33, file: !4, discriminator: 0)
!36 = !DILocation(line: 87, column: 9, scope: !35)
!37 = !DILocation(line: 84, column: 5, scope: !35)
!38 = !DILocation(line: 81, column: 5, scope: !35)
!39 = !DILocation(line: 77, column: 5, scope: !35)
!40 = !DILocation(line: 72, column: 5, scope: !35)
!41 = !DILocation(line: 68, column: 5, scope: !35)
!42 = !DILocation(line: 66, column: 5, scope: !35)
!43 = !DILocation(line: 72, column: 22, scope: !35)
!44 = !DILocation(line: 73, column: 5, scope: !35)
!45 = !DILocation(line: 75, column: 53, scope: !35)
!46 = !DILocation(line: 75, column: 40, scope: !35)
!47 = !DILocation(line: 75, column: 63, scope: !35)
!48 = !DILocation(line: 75, column: 75, scope: !35)
!49 = !DILocation(line: 75, column: 61, scope: !35)
!50 = !DILocation(line: 75, column: 5, scope: !35)
!51 = !DILocation(line: 81, column: 22, scope: !35)
!52 = !DILocation(line: 82, column: 5, scope: !35)
!53 = !DILocation(line: 84, column: 22, scope: !35)
!54 = !DILocation(line: 85, column: 31, scope: !35)
!55 = !DILocation(line: 86, column: 26, scope: !35)
!56 = !DILocation(line: 87, column: 17, scope: !35)
!57 = !DILocation(line: 88, column: 13, scope: !35)
!58 = !DILocation(line: 88, column: 9, scope: !35)
!59 = !DILocation(line: 89, column: 34, scope: !35)
!60 = !DILocation(line: 91, column: 5, scope: !35)
!61 = !DILocation(line: 92, column: 5, scope: !35)
!62 = !DILocation(line: 93, column: 24, scope: !35)
!63 = !DILocation(line: 93, column: 9, scope: !35)
!64 = !DILocation(line: 95, column: 5, scope: !35)
!65 = !DILocation(line: 96, column: 1, scope: !35)
!66 = distinct !DISubprogram(name: "_ZNKSt6chrono8durationIlSt5ratioILl1ELl1000000EEE5countEv", linkageName: "_ZNKSt6chrono8durationIlSt5ratioILl1ELl1000000EEE5countEv", scope: null, file: !24, line: 346, type: !5, scopeLine: 346, spFlags: DISPFlagDefinition | DISPFlagOptimized, unit: !0, retainedNodes: !6)
!67 = !DILocation(line: 347, column: 11, scope: !68)
!68 = !DILexicalBlockFile(scope: !66, file: !24, discriminator: 0)
!69 = !DILocation(line: 347, column: 16, scope: !68)
!70 = distinct !DISubprogram(name: "_ZNSt6chrono13duration_castINS_8durationIlSt5ratioILl1ELl1000000EEEElS2_ILl1ELl1000000000EEEENSt9enable_ifIXsr13__is_durationIT_EE5valueES7_E4typeERKNS1_IT0_T1_EE", linkageName: "_ZNSt6chrono13duration_castINS_8durationIlSt5ratioILl1ELl1000000EEEElS2_ILl1ELl1000000000EEEENSt9enable_ifIXsr13__is_durationIT_EE5valueES7_E4typeERKNS1_IT0_T1_EE", scope: null, file: !24, line: 191, type: !5, scopeLine: 191, spFlags: DISPFlagDefinition | DISPFlagOptimized, unit: !0, retainedNodes: !6)
!71 = !DILocation(line: 200, column: 9, scope: !72)
!72 = !DILexicalBlockFile(scope: !70, file: !24, discriminator: 0)
!73 = !DILocation(line: 200, column: 2, scope: !72)
!74 = !DILocation(line: 201, column: 7, scope: !72)
!75 = distinct !DISubprogram(name: "_ZNSt6chronomiINS_3_V212steady_clockENS_8durationIlSt5ratioILl1ELl1000000000EEEES6_EENSt11common_typeIJT0_T1_EE4typeERKNS_10time_pointIT_S8_EERKNSC_ISD_S9_EE", linkageName: "_ZNSt6chronomiINS_3_V212steady_clockENS_8durationIlSt5ratioILl1ELl1000000000EEEES6_EENSt11common_typeIJT0_T1_EE4typeERKNS_10time_pointIT_S8_EERKNSC_ISD_S9_EE", scope: null, file: !24, line: 762, type: !5, scopeLine: 762, spFlags: DISPFlagDefinition | DISPFlagOptimized, unit: !0, retainedNodes: !6)
!76 = !DILocation(line: 764, column: 22, scope: !77)
!77 = !DILexicalBlockFile(scope: !75, file: !24, discriminator: 0)
!78 = !DILocation(line: 764, column: 16, scope: !77)
!79 = !DILocation(line: 764, column: 49, scope: !77)
!80 = !DILocation(line: 764, column: 43, scope: !77)
!81 = !DILocation(line: 764, column: 41, scope: !77)
!82 = !DILocation(line: 764, column: 9, scope: !77)
!83 = !DILocation(line: 764, column: 69, scope: !77)
!84 = distinct !DISubprogram(name: "_ZNSt6chrono8durationIlSt5ratioILl1ELl1000000000EEEC1ERKS3_", linkageName: "_ZNSt6chrono8durationIlSt5ratioILl1ELl1000000000EEEC1ERKS3_", scope: null, file: !24, line: 324, type: !5, scopeLine: 324, spFlags: DISPFlagDefinition | DISPFlagOptimized, unit: !0, retainedNodes: !6)
!85 = !DILocation(line: 324, column: 2, scope: !86)
!86 = !DILexicalBlockFile(scope: !84, file: !24, discriminator: 0)
!87 = !DILocation(line: 324, column: 36, scope: !86)
!88 = distinct !DISubprogram(name: "_ZNSt6chrono8durationIlSt5ratioILl1ELl1000000000EEE4zeroEv", linkageName: "_ZNSt6chrono8durationIlSt5ratioILl1ELl1000000000EEE4zeroEv", scope: null, file: !24, line: 431, type: !5, scopeLine: 431, spFlags: DISPFlagDefinition | DISPFlagOptimized, unit: !0, retainedNodes: !6)
!89 = !DILocation(line: 432, column: 20, scope: !90)
!90 = !DILexicalBlockFile(scope: !88, file: !24, discriminator: 0)
!91 = !DILocation(line: 432, column: 11, scope: !90)
!92 = !DILocation(line: 432, column: 4, scope: !90)
!93 = !DILocation(line: 432, column: 51, scope: !90)
!94 = distinct !DISubprogram(name: "_ZNSt6chrono8durationIlSt5ratioILl1ELl1000000000EEEaSERKS3_", linkageName: "_ZNSt6chrono8durationIlSt5ratioILl1ELl1000000000EEEaSERKS3_", scope: null, file: !24, line: 342, type: !5, scopeLine: 342, spFlags: DISPFlagDefinition | DISPFlagOptimized, unit: !0, retainedNodes: !6)
!95 = !DILocation(line: 342, column: 47, scope: !96)
!96 = !DILexicalBlockFile(scope: !94, file: !24, discriminator: 0)
!97 = distinct !DISubprogram(name: "_ZNSt6vectorIiSaIiEEC1Ev", linkageName: "_ZNSt6vectorIiSaIiEEC1Ev", scope: null, file: !98, line: 484, type: !5, scopeLine: 484, spFlags: DISPFlagDefinition | DISPFlagOptimized, unit: !0, retainedNodes: !6)
!98 = !DIFile(filename: "/../lib/gcc/x86_64-linux-gnu/9/../../../../include/c++/9/bits/stl_vector.h", directory: "")
!99 = !DILocation(line: 484, column: 7, scope: !100)
!100 = !DILexicalBlockFile(scope: !97, file: !98, discriminator: 0)
!101 = !DILocation(line: 484, column: 24, scope: !100)
!102 = distinct !DISubprogram(name: "_Z15get_data_by_selIciZ41calculate_distribution_store_and_fwd_flagvE3$_0EvPKcRT1_RSt6vectorIT0_SaIS6_EE", linkageName: "_Z15get_data_by_selIciZ41calculate_distribution_store_and_fwd_flagvE3$_0EvPKcRT1_RSt6vectorIT0_SaIS6_EE", scope: null, file: !4, line: 27, type: !5, scopeLine: 27, spFlags: DISPFlagDefinition | DISPFlagOptimized, unit: !0, retainedNodes: !6)
!103 = !DILocation(line: 38, column: 10, scope: !104)
!104 = !DILexicalBlockFile(scope: !102, file: !4, discriminator: 0)
!105 = !DILocation(line: 33, column: 5, scope: !104)
!106 = !DILocation(line: 28, column: 22, scope: !104)
!107 = !DILocation(line: 30, column: 36, scope: !104)
!108 = !DILocation(line: 31, column: 46, scope: !104)
!109 = !DILocation(line: 32, column: 41, scope: !104)
!110 = !DILocation(line: 33, column: 29, scope: !104)
!111 = !DILocation(line: 37, column: 17, scope: !104)
!112 = !DILocation(line: 38, column: 29, scope: !104)
!113 = !DILocation(line: 38, column: 5, scope: !104)
!114 = !DILocation(line: 39, column: 26, scope: !104)
!115 = !DILocation(line: 39, column: 43, scope: !104)
!116 = !DILocation(line: 39, column: 39, scope: !104)
!117 = !DILocation(line: 39, column: 13, scope: !104)
!118 = !DILocation(line: 39, column: 9, scope: !104)
!119 = !DILocation(line: 40, column: 25, scope: !104)
!120 = !DILocation(line: 38, column: 38, scope: !104)
!121 = !DILocation(line: 58, column: 27, scope: !104)
!122 = !DILocation(line: 58, column: 5, scope: !104)
!123 = !DILocation(line: 62, column: 1, scope: !104)
!124 = distinct !DISubprogram(name: "_ZNKSt6vectorIiSaIiEE4sizeEv", linkageName: "_ZNKSt6vectorIiSaIiEE4sizeEv", scope: null, file: !98, line: 915, type: !5, scopeLine: 915, spFlags: DISPFlagDefinition | DISPFlagOptimized, unit: !0, retainedNodes: !6)
!125 = !DILocation(line: 916, column: 26, scope: !126)
!126 = !DILexicalBlockFile(scope: !124, file: !98, discriminator: 0)
!127 = !DILocation(line: 916, column: 32, scope: !126)
!128 = !DILocation(line: 916, column: 40, scope: !126)
!129 = !DILocation(line: 916, column: 66, scope: !126)
!130 = !DILocation(line: 916, column: 52, scope: !126)
!131 = !DILocation(line: 916, column: 50, scope: !126)
!132 = !DILocation(line: 916, column: 77, scope: !126)
!133 = distinct !DISubprogram(name: "_ZNKSt6vectorImSaImEE4sizeEv", linkageName: "_ZNKSt6vectorImSaImEE4sizeEv", scope: null, file: !98, line: 915, type: !5, scopeLine: 915, spFlags: DISPFlagDefinition | DISPFlagOptimized, unit: !0, retainedNodes: !6)
!134 = !DILocation(line: 916, column: 26, scope: !135)
!135 = !DILexicalBlockFile(scope: !133, file: !98, discriminator: 0)
!136 = !DILocation(line: 916, column: 32, scope: !135)
!137 = !DILocation(line: 916, column: 40, scope: !135)
!138 = !DILocation(line: 916, column: 66, scope: !135)
!139 = !DILocation(line: 916, column: 52, scope: !135)
!140 = !DILocation(line: 916, column: 50, scope: !135)
!141 = !DILocation(line: 916, column: 77, scope: !135)
!142 = distinct !DISubprogram(name: "_Z15get_data_by_selIciZ41calculate_distribution_store_and_fwd_flagvE3$_1EvPKcRT1_RSt6vectorIT0_SaIS6_EE", linkageName: "_Z15get_data_by_selIciZ41calculate_distribution_store_and_fwd_flagvE3$_1EvPKcRT1_RSt6vectorIT0_SaIS6_EE", scope: null, file: !4, line: 27, type: !5, scopeLine: 27, spFlags: DISPFlagDefinition | DISPFlagOptimized, unit: !0, retainedNodes: !6)
!143 = !DILocation(line: 38, column: 10, scope: !144)
!144 = !DILexicalBlockFile(scope: !142, file: !4, discriminator: 0)
!145 = !DILocation(line: 33, column: 5, scope: !144)
!146 = !DILocation(line: 28, column: 22, scope: !144)
!147 = !DILocation(line: 30, column: 36, scope: !144)
!148 = !DILocation(line: 31, column: 46, scope: !144)
!149 = !DILocation(line: 32, column: 41, scope: !144)
!150 = !DILocation(line: 33, column: 29, scope: !144)
!151 = !DILocation(line: 37, column: 17, scope: !144)
!152 = !DILocation(line: 38, column: 29, scope: !144)
!153 = !DILocation(line: 38, column: 5, scope: !144)
!154 = !DILocation(line: 39, column: 26, scope: !144)
!155 = !DILocation(line: 39, column: 43, scope: !144)
!156 = !DILocation(line: 39, column: 39, scope: !144)
!157 = !DILocation(line: 39, column: 13, scope: !144)
!158 = !DILocation(line: 39, column: 9, scope: !144)
!159 = !DILocation(line: 40, column: 25, scope: !144)
!160 = !DILocation(line: 38, column: 38, scope: !144)
!161 = !DILocation(line: 58, column: 27, scope: !144)
!162 = !DILocation(line: 58, column: 5, scope: !144)
!163 = !DILocation(line: 62, column: 1, scope: !144)
!164 = distinct !DISubprogram(name: "_ZNSt6vectorIiSaIiEEixEm", linkageName: "_ZNSt6vectorIiSaIiEEixEm", scope: null, file: !98, line: 1040, type: !5, scopeLine: 1040, spFlags: DISPFlagDefinition | DISPFlagOptimized, unit: !0, retainedNodes: !6)
!165 = !DILocation(line: 1043, column: 11, scope: !166)
!166 = !DILexicalBlockFile(scope: !164, file: !98, discriminator: 0)
!167 = !DILocation(line: 1043, column: 17, scope: !166)
!168 = !DILocation(line: 1043, column: 25, scope: !166)
!169 = !DILocation(line: 1043, column: 34, scope: !166)
!170 = !DILocation(line: 1044, column: 7, scope: !166)
!171 = distinct !DISubprogram(name: "_ZNSt6vectorIiSaIiEE9push_backERKi", linkageName: "_ZNSt6vectorIiSaIiEE9push_backERKi", scope: null, file: !98, line: 1184, type: !5, scopeLine: 1184, spFlags: DISPFlagDefinition | DISPFlagOptimized, unit: !0, retainedNodes: !6)
!172 = !DILocation(line: 1186, column: 6, scope: !173)
!173 = !DILexicalBlockFile(scope: !171, file: !98, discriminator: 0)
!174 = !DILocation(line: 1186, column: 12, scope: !173)
!175 = !DILocation(line: 1186, column: 20, scope: !173)
!176 = !DILocation(line: 1186, column: 47, scope: !173)
!177 = !DILocation(line: 1186, column: 33, scope: !173)
!178 = !DILocation(line: 1186, column: 30, scope: !173)
!179 = !DILocation(line: 1186, column: 2, scope: !173)
!180 = !DILocation(line: 1189, column: 31, scope: !173)
!181 = !DILocation(line: 1189, column: 46, scope: !173)
!182 = !DILocation(line: 1189, column: 6, scope: !173)
!183 = !DILocation(line: 1191, column: 6, scope: !173)
!184 = !DILocation(line: 1195, column: 22, scope: !173)
!185 = !DILocation(line: 1195, column: 4, scope: !173)
!186 = !DILocation(line: 1196, column: 7, scope: !173)
!187 = distinct !DISubprogram(name: "_ZN9__gnu_cxx17__normal_iteratorIPiSt6vectorIiSaIiEEEC1EOS5_", linkageName: "_ZN9__gnu_cxx17__normal_iteratorIPiSt6vectorIiSaIiEEEC1EOS5_", scope: null, file: !188, line: 784, type: !5, scopeLine: 784, spFlags: DISPFlagDefinition | DISPFlagOptimized, unit: !0, retainedNodes: !6)
!188 = !DIFile(filename: "/../lib/gcc/x86_64-linux-gnu/9/../../../../include/c++/9/bits/stl_iterator.h", directory: "")
!189 = !DILocation(line: 784, column: 11, scope: !190)
!190 = !DILexicalBlockFile(scope: !187, file: !188, discriminator: 0)
!191 = distinct !DISubprogram(name: "_ZNSt6vectorIiSaIiEE5beginEv", linkageName: "_ZNSt6vectorIiSaIiEE5beginEv", scope: null, file: !98, line: 808, type: !5, scopeLine: 808, spFlags: DISPFlagDefinition | DISPFlagOptimized, unit: !0, retainedNodes: !6)
!192 = !DILocation(line: 809, column: 25, scope: !193)
!193 = !DILexicalBlockFile(scope: !191, file: !98, discriminator: 0)
!194 = !DILocation(line: 809, column: 31, scope: !193)
!195 = !DILocation(line: 809, column: 39, scope: !193)
!196 = !DILocation(line: 809, column: 16, scope: !193)
!197 = !DILocation(line: 809, column: 9, scope: !193)
!198 = !DILocation(line: 809, column: 50, scope: !193)
!199 = distinct !DISubprogram(name: "_ZNSt6vectorIiSaIiEE3endEv", linkageName: "_ZNSt6vectorIiSaIiEE3endEv", scope: null, file: !98, line: 826, type: !5, scopeLine: 826, spFlags: DISPFlagDefinition | DISPFlagOptimized, unit: !0, retainedNodes: !6)
!200 = !DILocation(line: 827, column: 25, scope: !201)
!201 = !DILexicalBlockFile(scope: !199, file: !98, discriminator: 0)
!202 = !DILocation(line: 827, column: 31, scope: !201)
!203 = !DILocation(line: 827, column: 39, scope: !201)
!204 = !DILocation(line: 827, column: 16, scope: !201)
!205 = !DILocation(line: 827, column: 9, scope: !201)
!206 = !DILocation(line: 827, column: 51, scope: !201)
!207 = distinct !DISubprogram(name: "_ZN9__gnu_cxxneIPiSt6vectorIiSaIiEEEEbRKNS_17__normal_iteratorIT_T0_EESA_", linkageName: "_ZN9__gnu_cxxneIPiSt6vectorIiSaIiEEEEbRKNS_17__normal_iteratorIT_T0_EESA_", scope: null, file: !188, line: 904, type: !5, scopeLine: 904, spFlags: DISPFlagDefinition | DISPFlagOptimized, unit: !0, retainedNodes: !6)
!208 = !DILocation(line: 907, column: 20, scope: !209)
!209 = !DILexicalBlockFile(scope: !207, file: !188, discriminator: 0)
!210 = !DILocation(line: 907, column: 14, scope: !209)
!211 = !DILocation(line: 907, column: 36, scope: !209)
!212 = !DILocation(line: 907, column: 30, scope: !209)
!213 = !DILocation(line: 907, column: 27, scope: !209)
!214 = !DILocation(line: 907, column: 44, scope: !209)
!215 = distinct !DISubprogram(name: "_ZNK9__gnu_cxx17__normal_iteratorIPiSt6vectorIiSaIiEEEdeEv", linkageName: "_ZNK9__gnu_cxx17__normal_iteratorIPiSt6vectorIiSaIiEEEdeEv", scope: null, file: !188, line: 816, type: !5, scopeLine: 816, spFlags: DISPFlagDefinition | DISPFlagOptimized, unit: !0, retainedNodes: !6)
!216 = !DILocation(line: 817, column: 17, scope: !217)
!217 = !DILexicalBlockFile(scope: !215, file: !188, discriminator: 0)
!218 = !DILocation(line: 817, column: 29, scope: !217)
!219 = distinct !DISubprogram(name: "_ZN9__gnu_cxx17__normal_iteratorIPiSt6vectorIiSaIiEEEppEv", linkageName: "_ZN9__gnu_cxx17__normal_iteratorIPiSt6vectorIiSaIiEEEppEv", scope: null, file: !188, line: 824, type: !5, scopeLine: 824, spFlags: DISPFlagDefinition | DISPFlagOptimized, unit: !0, retainedNodes: !6)
!220 = !DILocation(line: 826, column: 4, scope: !221)
!221 = !DILexicalBlockFile(scope: !219, file: !188, discriminator: 0)
!222 = !DILocation(line: 826, column: 2, scope: !221)
!223 = !DILocation(line: 828, column: 7, scope: !221)
!224 = distinct !DISubprogram(name: "_ZNSt6chrono8durationIlSt5ratioILl1ELl1000000EEEC1ERKS3_", linkageName: "_ZNSt6chrono8durationIlSt5ratioILl1ELl1000000EEEC1ERKS3_", scope: null, file: !24, line: 324, type: !5, scopeLine: 324, spFlags: DISPFlagDefinition | DISPFlagOptimized, unit: !0, retainedNodes: !6)
!225 = !DILocation(line: 324, column: 2, scope: !226)
!226 = !DILexicalBlockFile(scope: !224, file: !24, discriminator: 0)
!227 = !DILocation(line: 324, column: 36, scope: !226)
!228 = distinct !DISubprogram(name: "_ZNSt6chrono20__duration_cast_implINS_8durationIlSt5ratioILl1ELl1000000EEEES2_ILl1ELl1000EElLb1ELb0EE6__castIlS2_ILl1ELl1000000000EEEES4_RKNS1_IT_T0_EE", linkageName: "_ZNSt6chrono20__duration_cast_implINS_8durationIlSt5ratioILl1ELl1000000EEEES2_ILl1ELl1000EElLb1ELb0EE6__castIlS2_ILl1ELl1000000000EEEES4_RKNS1_IT_T0_EE", scope: null, file: !24, line: 149, type: !5, scopeLine: 149, spFlags: DISPFlagDefinition | DISPFlagOptimized, unit: !0, retainedNodes: !6)
!229 = !DILocation(line: 153, column: 29, scope: !230)
!230 = !DILexicalBlockFile(scope: !228, file: !24, discriminator: 0)
!231 = !DILocation(line: 153, column: 38, scope: !230)
!232 = !DILocation(line: 152, column: 20, scope: !230)
!233 = !DILocation(line: 152, column: 13, scope: !230)
!234 = !DILocation(line: 152, column: 6, scope: !230)
!235 = !DILocation(line: 154, column: 4, scope: !230)
!236 = distinct !DISubprogram(name: "_ZNSt6chronomiIlSt5ratioILl1ELl1000000000EElS2_EENSt11common_typeIJNS_8durationIT_T0_EENS4_IT1_T2_EEEE4typeERKS7_RKSA_", linkageName: "_ZNSt6chronomiIlSt5ratioILl1ELl1000000000EElS2_EENSt11common_typeIJNS_8durationIT_T0_EENS4_IT1_T2_EEEE4typeERKS7_RKSA_", scope: null, file: !24, line: 463, type: !5, scopeLine: 463, spFlags: DISPFlagDefinition | DISPFlagOptimized, unit: !0, retainedNodes: !6)
!237 = !DILocation(line: 469, column: 14, scope: !238)
!238 = !DILexicalBlockFile(scope: !236, file: !24, discriminator: 0)
!239 = !DILocation(line: 469, column: 26, scope: !238)
!240 = !DILocation(line: 469, column: 36, scope: !238)
!241 = !DILocation(line: 469, column: 48, scope: !238)
!242 = !DILocation(line: 469, column: 34, scope: !238)
!243 = !DILocation(line: 469, column: 9, scope: !238)
!244 = !DILocation(line: 469, column: 2, scope: !238)
!245 = !DILocation(line: 470, column: 7, scope: !238)
!246 = distinct !DISubprogram(name: "_ZNKSt6chrono10time_pointINS_3_V212steady_clockENS_8durationIlSt5ratioILl1ELl1000000000EEEEE16time_since_epochEv", linkageName: "_ZNKSt6chrono10time_pointINS_3_V212steady_clockENS_8durationIlSt5ratioILl1ELl1000000000EEEEE16time_since_epochEv", scope: null, file: !24, line: 649, type: !5, scopeLine: 649, spFlags: DISPFlagDefinition | DISPFlagOptimized, unit: !0, retainedNodes: !6)
!247 = !DILocation(line: 650, column: 11, scope: !248)
!248 = !DILexicalBlockFile(scope: !246, file: !24, discriminator: 0)
!249 = !DILocation(line: 650, column: 4, scope: !248)
!250 = !DILocation(line: 650, column: 16, scope: !248)
!251 = distinct !DISubprogram(name: "_ZNSt6chrono8durationIlSt5ratioILl1ELl1000000000EEEC1IlvEERKT_", linkageName: "_ZNSt6chrono8durationIlSt5ratioILl1ELl1000000000EEEC1IlvEERKT_", scope: null, file: !24, line: 331, type: !5, scopeLine: 331, spFlags: DISPFlagDefinition | DISPFlagOptimized, unit: !0, retainedNodes: !6)
!252 = !DILocation(line: 332, column: 27, scope: !253)
!253 = !DILexicalBlockFile(scope: !251, file: !24, discriminator: 0)
!254 = !DILocation(line: 331, column: 4, scope: !253)
!255 = !DILocation(line: 332, column: 37, scope: !253)
!256 = distinct !DISubprogram(name: "_ZNSt6chrono15duration_valuesIlE4zeroEv", linkageName: "_ZNSt6chrono15duration_valuesIlE4zeroEv", scope: null, file: !24, line: 276, type: !5, scopeLine: 276, spFlags: DISPFlagDefinition | DISPFlagOptimized, unit: !0, retainedNodes: !6)
!257 = !DILocation(line: 277, column: 20, scope: !258)
!258 = !DILexicalBlockFile(scope: !256, file: !24, discriminator: 0)
!259 = distinct !DISubprogram(name: "_ZNSt12_Vector_baseIiSaIiEEC1Ev", linkageName: "_ZNSt12_Vector_baseIiSaIiEEC1Ev", scope: null, file: !98, line: 285, type: !5, scopeLine: 285, spFlags: DISPFlagDefinition | DISPFlagOptimized, unit: !0, retainedNodes: !6)
!260 = !DILocation(line: 285, column: 7, scope: !261)
!261 = !DILexicalBlockFile(scope: !259, file: !98, discriminator: 0)
!262 = !DILocation(line: 285, column: 30, scope: !261)
!263 = distinct !DISubprogram(name: "_ZNKSt6vectorIcSaIcEE4sizeEv", linkageName: "_ZNKSt6vectorIcSaIcEE4sizeEv", scope: null, file: !98, line: 915, type: !5, scopeLine: 915, spFlags: DISPFlagDefinition | DISPFlagOptimized, unit: !0, retainedNodes: !6)
!264 = !DILocation(line: 916, column: 26, scope: !265)
!265 = !DILexicalBlockFile(scope: !263, file: !98, discriminator: 0)
!266 = !DILocation(line: 916, column: 32, scope: !265)
!267 = !DILocation(line: 916, column: 40, scope: !265)
!268 = !DILocation(line: 916, column: 66, scope: !265)
!269 = !DILocation(line: 916, column: 52, scope: !265)
!270 = !DILocation(line: 916, column: 50, scope: !265)
!271 = !DILocation(line: 916, column: 77, scope: !265)
!272 = distinct !DISubprogram(name: "_ZNSt6vectorImSaImEEC1Ev", linkageName: "_ZNSt6vectorImSaImEEC1Ev", scope: null, file: !98, line: 484, type: !5, scopeLine: 484, spFlags: DISPFlagDefinition | DISPFlagOptimized, unit: !0, retainedNodes: !6)
!273 = !DILocation(line: 484, column: 7, scope: !274)
!274 = !DILexicalBlockFile(scope: !272, file: !98, discriminator: 0)
!275 = !DILocation(line: 484, column: 24, scope: !274)
!276 = distinct !DISubprogram(name: "_ZNSt6vectorImSaImEE7reserveEm", linkageName: "_ZNSt6vectorImSaImEE7reserveEm", scope: null, file: !98, line: 1025, type: !5, scopeLine: 1025, spFlags: DISPFlagDefinition | DISPFlagOptimized, unit: !0, retainedNodes: !6)
!277 = !DILocation(line: 69, column: 23, scope: !278)
!278 = !DILexicalBlockFile(scope: !276, file: !279, discriminator: 0)
!279 = !DIFile(filename: "/../lib/gcc/x86_64-linux-gnu/9/../../../../include/c++/9/bits/vector.tcc", directory: "")
!280 = !DILocation(line: 69, column: 15, scope: !278)
!281 = !DILocation(line: 69, column: 7, scope: !278)
!282 = !DILocation(line: 70, column: 2, scope: !278)
!283 = !DILocation(line: 71, column: 17, scope: !278)
!284 = !DILocation(line: 71, column: 28, scope: !278)
!285 = !DILocation(line: 71, column: 7, scope: !278)
!286 = !DILocation(line: 73, column: 33, scope: !278)
!287 = !DILocation(line: 76, column: 29, scope: !278)
!288 = !DILocation(line: 76, column: 4, scope: !278)
!289 = !DILocation(line: 78, column: 16, scope: !278)
!290 = !DILocation(line: 78, column: 22, scope: !278)
!291 = !DILocation(line: 79, column: 26, scope: !278)
!292 = !DILocation(line: 79, column: 20, scope: !278)
!293 = !DILocation(line: 79, column: 34, scope: !278)
!294 = !DILocation(line: 79, column: 58, scope: !278)
!295 = !DILocation(line: 79, column: 44, scope: !278)
!296 = !DILocation(line: 80, column: 13, scope: !278)
!297 = !DILocation(line: 964, column: 14, scope: !298, inlinedAt: !300)
!298 = !DILexicalBlockFile(scope: !276, file: !299, discriminator: 0)
!299 = !DIFile(filename: "/../lib/gcc/x86_64-linux-gnu/9/../../../../include/c++/9/bits/stl_uninitialized.h", directory: "")
!300 = !DILocation(line: 453, column: 9, scope: !301, inlinedAt: !302)
!301 = !DILexicalBlockFile(scope: !276, file: !98, discriminator: 0)
!302 = !DILocation(line: 466, column: 9, scope: !301, inlinedAt: !303)
!303 = !DILocation(line: 79, column: 8, scope: !278)
!304 = !DILocation(line: 86, column: 43, scope: !278)
!305 = !DILocation(line: 86, column: 49, scope: !278)
!306 = !DILocation(line: 86, column: 57, scope: !278)
!307 = !DILocation(line: 1265, column: 3, scope: !308)
!308 = !DILexicalBlockFile(scope: !276, file: !188, discriminator: 0)
!309 = !DILocation(line: 87, column: 57, scope: !278)
!310 = !DILocation(line: 87, column: 43, scope: !278)
!311 = !DILocation(line: 85, column: 16, scope: !278)
!312 = !DILocation(line: 89, column: 8, scope: !278)
!313 = !DILocation(line: 92, column: 4, scope: !278)
!314 = !DILocation(line: 92, column: 24, scope: !278)
!315 = !DILocation(line: 92, column: 18, scope: !278)
!316 = !DILocation(line: 92, column: 32, scope: !278)
!317 = !DILocation(line: 93, column: 18, scope: !278)
!318 = !DILocation(line: 93, column: 4, scope: !278)
!319 = !DILocation(line: 94, column: 4, scope: !278)
!320 = !DILocation(line: 95, column: 27, scope: !278)
!321 = !DILocation(line: 96, column: 18, scope: !278)
!322 = !DILocation(line: 96, column: 36, scope: !278)
!323 = !DILocation(line: 96, column: 28, scope: !278)
!324 = !DILocation(line: 97, column: 38, scope: !278)
!325 = !DILocation(line: 97, column: 61, scope: !278)
!326 = !DILocation(line: 97, column: 36, scope: !278)
!327 = !DILocation(line: 99, column: 5, scope: !278)
!328 = distinct !DISubprogram(name: "_ZZ41calculate_distribution_store_and_fwd_flagvENK3$_0clERKmRKc", linkageName: "_ZZ41calculate_distribution_store_and_fwd_flagvENK3$_0clERKmRKc", scope: null, file: !4, line: 68, type: !5, scopeLine: 68, spFlags: DISPFlagDefinition | DISPFlagOptimized, unit: !0, retainedNodes: !6)
!329 = !DILocation(line: 69, column: 16, scope: !330)
!330 = !DILexicalBlockFile(scope: !328, file: !4, discriminator: 0)
!331 = !DILocation(line: 69, column: 21, scope: !330)
!332 = !DILocation(line: 70, column: 5, scope: !330)
!333 = distinct !DISubprogram(name: "_ZNSt6vectorImSaImEEixEm", linkageName: "_ZNSt6vectorImSaImEEixEm", scope: null, file: !98, line: 1040, type: !5, scopeLine: 1040, spFlags: DISPFlagDefinition | DISPFlagOptimized, unit: !0, retainedNodes: !6)
!334 = !DILocation(line: 1043, column: 11, scope: !335)
!335 = !DILexicalBlockFile(scope: !333, file: !98, discriminator: 0)
!336 = !DILocation(line: 1043, column: 17, scope: !335)
!337 = !DILocation(line: 1043, column: 25, scope: !335)
!338 = !DILocation(line: 1043, column: 34, scope: !335)
!339 = !DILocation(line: 1044, column: 7, scope: !335)
!340 = distinct !DISubprogram(name: "_ZNKSt6vectorIcSaIcEEixEm", linkageName: "_ZNKSt6vectorIcSaIcEEixEm", scope: null, file: !98, line: 1058, type: !5, scopeLine: 1058, spFlags: DISPFlagDefinition | DISPFlagOptimized, unit: !0, retainedNodes: !6)
!341 = !DILocation(line: 1061, column: 11, scope: !342)
!342 = !DILexicalBlockFile(scope: !340, file: !98, discriminator: 0)
!343 = !DILocation(line: 1061, column: 17, scope: !342)
!344 = !DILocation(line: 1061, column: 25, scope: !342)
!345 = !DILocation(line: 1061, column: 34, scope: !342)
!346 = !DILocation(line: 1062, column: 7, scope: !342)
!347 = distinct !DISubprogram(name: "_ZNSt6vectorImSaImEE9push_backERKm", linkageName: "_ZNSt6vectorImSaImEE9push_backERKm", scope: null, file: !98, line: 1184, type: !5, scopeLine: 1184, spFlags: DISPFlagDefinition | DISPFlagOptimized, unit: !0, retainedNodes: !6)
!348 = !DILocation(line: 1186, column: 6, scope: !349)
!349 = !DILexicalBlockFile(scope: !347, file: !98, discriminator: 0)
!350 = !DILocation(line: 1186, column: 12, scope: !349)
!351 = !DILocation(line: 1186, column: 20, scope: !349)
!352 = !DILocation(line: 1186, column: 47, scope: !349)
!353 = !DILocation(line: 1186, column: 33, scope: !349)
!354 = !DILocation(line: 1186, column: 30, scope: !349)
!355 = !DILocation(line: 1186, column: 2, scope: !349)
!356 = !DILocation(line: 1189, column: 31, scope: !349)
!357 = !DILocation(line: 1189, column: 46, scope: !349)
!358 = !DILocation(line: 1189, column: 6, scope: !349)
!359 = !DILocation(line: 1191, column: 6, scope: !349)
!360 = !DILocation(line: 1195, column: 22, scope: !349)
!361 = !DILocation(line: 1195, column: 4, scope: !349)
!362 = !DILocation(line: 1196, column: 7, scope: !349)
!363 = distinct !DISubprogram(name: "_Z8sel_loadIiEvRSt6vectorImSaImEERKS0_IT_SaIS4_EERS6_", linkageName: "_Z8sel_loadIiEvRSt6vectorImSaImEERKS0_IT_SaIS4_EERS6_", scope: null, file: !4, line: 7, type: !5, scopeLine: 7, spFlags: DISPFlagDefinition | DISPFlagOptimized, unit: !0, retainedNodes: !6)
!364 = !DILocation(line: 9, column: 5, scope: !365)
!365 = !DILexicalBlockFile(scope: !363, file: !4, discriminator: 0)
!366 = !DILocation(line: 9, column: 36, scope: !365)
!367 = !DILocation(line: 11, column: 38, scope: !365)
!368 = !DILocation(line: 11, column: 30, scope: !365)
!369 = !DILocation(line: 11, column: 21, scope: !365)
!370 = !DILocation(line: 11, column: 13, scope: !365)
!371 = !DILocation(line: 12, column: 24, scope: !365)
!372 = !DILocation(line: 13, column: 26, scope: !365)
!373 = !DILocation(line: 14, column: 24, scope: !365)
!374 = !DILocation(line: 16, column: 19, scope: !365)
!375 = !DILocation(line: 16, column: 13, scope: !365)
!376 = !DILocation(line: 16, column: 57, scope: !365)
!377 = !DILocation(line: 18, column: 21, scope: !365)
!378 = !DILocation(line: 18, column: 19, scope: !365)
!379 = !DILocation(line: 19, column: 31, scope: !365)
!380 = !DILocation(line: 19, column: 21, scope: !365)
!381 = !DILocation(line: 24, column: 1, scope: !365)
!382 = distinct !DISubprogram(name: "_ZZ41calculate_distribution_store_and_fwd_flagvENK3$_1clERKmRKc", linkageName: "_ZZ41calculate_distribution_store_and_fwd_flagvENK3$_1clERKmRKc", scope: null, file: !4, line: 77, type: !5, scopeLine: 77, spFlags: DISPFlagDefinition | DISPFlagOptimized, unit: !0, retainedNodes: !6)
!383 = !DILocation(line: 78, column: 16, scope: !384)
!384 = !DILexicalBlockFile(scope: !382, file: !4, discriminator: 0)
!385 = !DILocation(line: 78, column: 21, scope: !384)
!386 = !DILocation(line: 79, column: 5, scope: !384)
!387 = distinct !DISubprogram(name: "_ZNSt16allocator_traitsISaIiEE9constructIiJRKiEEEvRS0_PT_DpOT0_", linkageName: "_ZNSt16allocator_traitsISaIiEE9constructIiJRKiEEEvRS0_PT_DpOT0_", scope: null, file: !388, line: 481, type: !5, scopeLine: 481, spFlags: DISPFlagDefinition | DISPFlagOptimized, unit: !0, retainedNodes: !6)
!388 = !DIFile(filename: "/../lib/gcc/x86_64-linux-gnu/9/../../../../include/c++/9/bits/alloc_traits.h", directory: "")
!389 = !DILocation(line: 483, column: 4, scope: !390)
!390 = !DILexicalBlockFile(scope: !387, file: !388, discriminator: 0)
!391 = !DILocation(line: 483, column: 8, scope: !390)
!392 = !DILocation(line: 483, column: 56, scope: !390)
!393 = distinct !DISubprogram(name: "_ZNSt6vectorIiSaIiEE17_M_realloc_insertIJRKiEEEvN9__gnu_cxx17__normal_iteratorIPiS1_EEDpOT_", linkageName: "_ZNSt6vectorIiSaIiEE17_M_realloc_insertIJRKiEEEvN9__gnu_cxx17__normal_iteratorIPiS1_EEDpOT_", scope: null, file: !98, line: 1734, type: !5, scopeLine: 1734, spFlags: DISPFlagDefinition | DISPFlagOptimized, unit: !0, retainedNodes: !6)
!394 = !DILocation(line: 1734, column: 20, scope: !395)
!395 = !DILexicalBlockFile(scope: !393, file: !98, discriminator: 0)
!396 = !DILocation(line: 436, column: 2, scope: !397)
!397 = !DILexicalBlockFile(scope: !393, file: !279, discriminator: 0)
!398 = !DILocation(line: 437, column: 29, scope: !397)
!399 = !DILocation(line: 437, column: 35, scope: !397)
!400 = !DILocation(line: 437, column: 43, scope: !397)
!401 = !DILocation(line: 438, column: 44, scope: !397)
!402 = !DILocation(line: 438, column: 30, scope: !397)
!403 = !DILocation(line: 439, column: 53, scope: !397)
!404 = !DILocation(line: 439, column: 51, scope: !397)
!405 = !DILocation(line: 440, column: 33, scope: !397)
!406 = !DILocation(line: 449, column: 29, scope: !397)
!407 = !DILocation(line: 450, column: 20, scope: !397)
!408 = !DILocation(line: 449, column: 4, scope: !397)
!409 = !DILocation(line: 459, column: 29, scope: !397)
!410 = !DILocation(line: 459, column: 4, scope: !397)
!411 = !DILocation(line: 461, column: 59, scope: !397)
!412 = !DILocation(line: 461, column: 48, scope: !397)
!413 = !DILocation(line: 462, column: 20, scope: !397)
!414 = !DILocation(line: 964, column: 14, scope: !415, inlinedAt: !416)
!415 = !DILexicalBlockFile(scope: !393, file: !299, discriminator: 0)
!416 = !DILocation(line: 453, column: 9, scope: !395, inlinedAt: !417)
!417 = !DILocation(line: 466, column: 9, scope: !395, inlinedAt: !418)
!418 = !DILocation(line: 461, column: 23, scope: !397)
!419 = !DILocation(line: 464, column: 8, scope: !397)
!420 = !DILocation(line: 466, column: 46, scope: !397)
!421 = !DILocation(line: 466, column: 35, scope: !397)
!422 = !DILocation(line: 467, column: 21, scope: !397)
!423 = !DILocation(line: 474, column: 28, scope: !397)
!424 = !DILocation(line: 474, column: 17, scope: !397)
!425 = !DILocation(line: 475, column: 17, scope: !397)
!426 = !DILocation(line: 473, column: 5, scope: !397)
!427 = !DILocation(line: 477, column: 8, scope: !397)
!428 = !DILocation(line: 481, column: 15, scope: !397)
!429 = !DILocation(line: 481, column: 4, scope: !397)
!430 = !DILocation(line: 482, column: 18, scope: !397)
!431 = !DILocation(line: 480, column: 5, scope: !397)
!432 = !DILocation(line: 496, column: 33, scope: !397)
!433 = !DILocation(line: 0, scope: !397)
!434 = !DILocation(line: 496, column: 7, scope: !397)
!435 = !DILocation(line: 498, column: 43, scope: !397)
!436 = !DILocation(line: 501, column: 21, scope: !397)
!437 = !DILocation(line: 501, column: 7, scope: !397)
!438 = !DILocation(line: 501, column: 39, scope: !397)
!439 = !DILocation(line: 500, column: 7, scope: !397)
!440 = !DILocation(line: 502, column: 30, scope: !397)
!441 = !DILocation(line: 503, column: 31, scope: !397)
!442 = !DILocation(line: 504, column: 53, scope: !397)
!443 = !DILocation(line: 504, column: 39, scope: !397)
!444 = !DILocation(line: 505, column: 5, scope: !397)
!445 = distinct !DISubprogram(name: "_ZN9__gnu_cxx17__normal_iteratorIPiSt6vectorIiSaIiEEEC1ERKS1_", linkageName: "_ZN9__gnu_cxx17__normal_iteratorIPiSt6vectorIiSaIiEEEC1ERKS1_", scope: null, file: !188, line: 803, type: !5, scopeLine: 803, spFlags: DISPFlagDefinition | DISPFlagOptimized, unit: !0, retainedNodes: !6)
!446 = !DILocation(line: 804, column: 20, scope: !447)
!447 = !DILexicalBlockFile(scope: !445, file: !188, discriminator: 0)
!448 = !DILocation(line: 802, column: 7, scope: !447)
!449 = !DILocation(line: 804, column: 27, scope: !447)
!450 = distinct !DISubprogram(name: "_ZNK9__gnu_cxx17__normal_iteratorIPiSt6vectorIiSaIiEEE4baseEv", linkageName: "_ZNK9__gnu_cxx17__normal_iteratorIPiSt6vectorIiSaIiEEE4baseEv", scope: null, file: !188, line: 868, type: !5, scopeLine: 868, spFlags: DISPFlagDefinition | DISPFlagOptimized, unit: !0, retainedNodes: !6)
!451 = !DILocation(line: 869, column: 16, scope: !452)
!452 = !DILexicalBlockFile(scope: !450, file: !188, discriminator: 0)
!453 = !DILocation(line: 869, column: 28, scope: !452)
!454 = distinct !DISubprogram(name: "_ZNSt6chrono8durationIlSt5ratioILl1ELl1000000EEEC1IlvEERKT_", linkageName: "_ZNSt6chrono8durationIlSt5ratioILl1ELl1000000EEEC1IlvEERKT_", scope: null, file: !24, line: 331, type: !5, scopeLine: 331, spFlags: DISPFlagDefinition | DISPFlagOptimized, unit: !0, retainedNodes: !6)
!455 = !DILocation(line: 332, column: 27, scope: !456)
!456 = !DILexicalBlockFile(scope: !454, file: !24, discriminator: 0)
!457 = !DILocation(line: 331, column: 4, scope: !456)
!458 = !DILocation(line: 332, column: 37, scope: !456)
!459 = distinct !DISubprogram(name: "_ZNKSt6chrono8durationIlSt5ratioILl1ELl1000000000EEE5countEv", linkageName: "_ZNKSt6chrono8durationIlSt5ratioILl1ELl1000000000EEE5countEv", scope: null, file: !24, line: 346, type: !5, scopeLine: 346, spFlags: DISPFlagDefinition | DISPFlagOptimized, unit: !0, retainedNodes: !6)
!460 = !DILocation(line: 347, column: 11, scope: !461)
!461 = !DILexicalBlockFile(scope: !459, file: !24, discriminator: 0)
!462 = !DILocation(line: 347, column: 16, scope: !461)
!463 = distinct !DISubprogram(name: "_ZNSt12_Vector_baseIiSaIiEE12_Vector_implC1Ev", linkageName: "_ZNSt12_Vector_baseIiSaIiEE12_Vector_implC1Ev", scope: null, file: !98, line: 128, type: !5, scopeLine: 128, spFlags: DISPFlagDefinition | DISPFlagOptimized, unit: !0, retainedNodes: !6)
!464 = !DILocation(line: 128, column: 2, scope: !465)
!465 = !DILexicalBlockFile(scope: !463, file: !98, discriminator: 0)
!466 = !DILocation(line: 131, column: 4, scope: !465)
!467 = distinct !DISubprogram(name: "_ZNSt12_Vector_baseImSaImEEC1Ev", linkageName: "_ZNSt12_Vector_baseImSaImEEC1Ev", scope: null, file: !98, line: 285, type: !5, scopeLine: 285, spFlags: DISPFlagDefinition | DISPFlagOptimized, unit: !0, retainedNodes: !6)
!468 = !DILocation(line: 285, column: 7, scope: !469)
!469 = !DILexicalBlockFile(scope: !467, file: !98, discriminator: 0)
!470 = !DILocation(line: 285, column: 30, scope: !469)
!471 = distinct !DISubprogram(name: "_ZNKSt6vectorImSaImEE8max_sizeEv", linkageName: "_ZNKSt6vectorImSaImEE8max_sizeEv", scope: null, file: !98, line: 920, type: !5, scopeLine: 920, spFlags: DISPFlagDefinition | DISPFlagOptimized, unit: !0, retainedNodes: !6)
!472 = !DILocation(line: 921, column: 28, scope: !473)
!473 = !DILexicalBlockFile(scope: !471, file: !98, discriminator: 0)
!474 = !DILocation(line: 921, column: 16, scope: !473)
!475 = !DILocation(line: 921, column: 52, scope: !473)
!476 = distinct !DISubprogram(name: "_ZNKSt6vectorImSaImEE8capacityEv", linkageName: "_ZNKSt6vectorImSaImEE8capacityEv", scope: null, file: !98, line: 995, type: !5, scopeLine: 995, spFlags: DISPFlagDefinition | DISPFlagOptimized, unit: !0, retainedNodes: !6)
!477 = !DILocation(line: 996, column: 26, scope: !478)
!478 = !DILexicalBlockFile(scope: !476, file: !98, discriminator: 0)
!479 = !DILocation(line: 996, column: 32, scope: !478)
!480 = !DILocation(line: 996, column: 40, scope: !478)
!481 = !DILocation(line: 997, column: 21, scope: !478)
!482 = !DILocation(line: 997, column: 7, scope: !478)
!483 = !DILocation(line: 997, column: 5, scope: !478)
!484 = !DILocation(line: 997, column: 32, scope: !478)
!485 = distinct !DISubprogram(name: "_ZNSt6vectorImSaImEE15_S_use_relocateEv", linkageName: "_ZNSt6vectorImSaImEE15_S_use_relocateEv", scope: null, file: !98, line: 441, type: !5, scopeLine: 441, spFlags: DISPFlagDefinition | DISPFlagOptimized, unit: !0, retainedNodes: !6)
!486 = !DILocation(line: 446, column: 29, scope: !487)
!487 = !DILexicalBlockFile(scope: !485, file: !98, discriminator: 0)
!488 = !DILocation(line: 447, column: 7, scope: !487)
!489 = distinct !DISubprogram(name: "_ZNSt12_Vector_baseImSaImEE11_M_allocateEm", linkageName: "_ZNSt12_Vector_baseImSaImEE11_M_allocateEm", scope: null, file: !98, line: 340, type: !5, scopeLine: 340, spFlags: DISPFlagDefinition | DISPFlagOptimized, unit: !0, retainedNodes: !6)
!490 = !DILocation(line: 343, column: 13, scope: !491)
!491 = !DILexicalBlockFile(scope: !489, file: !98, discriminator: 0)
!492 = !DILocation(line: 343, column: 9, scope: !491)
!493 = !DILocation(line: 343, column: 34, scope: !491)
!494 = !DILocation(line: 343, column: 20, scope: !491)
!495 = !DILocation(line: 344, column: 7, scope: !491)
!496 = distinct !DISubprogram(name: "_ZNSt6vectorImSaImEE11_S_relocateEPmS2_S2_RS0_", linkageName: "_ZNSt6vectorImSaImEE11_S_relocateEPmS2_S2_RS0_", scope: null, file: !98, line: 462, type: !5, scopeLine: 462, spFlags: DISPFlagDefinition | DISPFlagOptimized, unit: !0, retainedNodes: !6)
!497 = !DILocation(line: 964, column: 14, scope: !498, inlinedAt: !499)
!498 = !DILexicalBlockFile(scope: !496, file: !299, discriminator: 0)
!499 = !DILocation(line: 453, column: 9, scope: !500, inlinedAt: !501)
!500 = !DILexicalBlockFile(scope: !496, file: !98, discriminator: 0)
!501 = !DILocation(line: 466, column: 9, scope: !500)
!502 = !DILocation(line: 467, column: 7, scope: !500)
!503 = distinct !DISubprogram(name: "_ZNSt12_Vector_baseImSaImEE19_M_get_Tp_allocatorEv", linkageName: "_ZNSt12_Vector_baseImSaImEE19_M_get_Tp_allocatorEv", scope: null, file: !98, line: 273, type: !5, scopeLine: 273, spFlags: DISPFlagDefinition | DISPFlagOptimized, unit: !0, retainedNodes: !6)
!504 = !DILocation(line: 274, column: 22, scope: !505)
!505 = !DILexicalBlockFile(scope: !503, file: !98, discriminator: 0)
!506 = !DILocation(line: 274, column: 16, scope: !505)
!507 = !DILocation(line: 274, column: 31, scope: !505)
!508 = distinct !DISubprogram(name: "_ZNSt6vectorImSaImEE20_M_allocate_and_copyISt13move_iteratorIPmEEES4_mT_S6_", linkageName: "_ZNSt6vectorImSaImEE20_M_allocate_and_copyISt13move_iteratorIPmEEES4_mT_S6_", scope: null, file: !98, line: 1505, type: !5, scopeLine: 1505, spFlags: DISPFlagDefinition | DISPFlagOptimized, unit: !0, retainedNodes: !6)
!509 = !DILocation(line: 1506, column: 35, scope: !510)
!510 = !DILexicalBlockFile(scope: !508, file: !98, discriminator: 0)
!511 = !DILocation(line: 1506, column: 9, scope: !510)
!512 = !DILocation(line: 1508, column: 23, scope: !510)
!513 = !DILocation(line: 1508, column: 29, scope: !510)
!514 = !DILocation(line: 1511, column: 36, scope: !510)
!515 = !DILocation(line: 1511, column: 45, scope: !510)
!516 = !DILocation(line: 1512, column: 8, scope: !510)
!517 = !DILocation(line: 1511, column: 8, scope: !510)
!518 = !DILocation(line: 1520, column: 2, scope: !510)
!519 = distinct !DISubprogram(name: "_ZNSt13move_iteratorIPmEC1EOS1_", linkageName: "_ZNSt13move_iteratorIPmEC1EOS1_", scope: null, file: !188, line: 1028, type: !5, scopeLine: 1028, spFlags: DISPFlagDefinition | DISPFlagOptimized, unit: !0, retainedNodes: !6)
!520 = !DILocation(line: 1028, column: 11, scope: !521)
!521 = !DILexicalBlockFile(scope: !519, file: !188, discriminator: 0)
!522 = distinct !DISubprogram(name: "_ZSt32__make_move_if_noexcept_iteratorImSt13move_iteratorIPmEET0_PT_", linkageName: "_ZSt32__make_move_if_noexcept_iteratorImSt13move_iteratorIPmEET0_PT_", scope: null, file: !188, line: 1239, type: !5, scopeLine: 1239, spFlags: DISPFlagDefinition | DISPFlagOptimized, unit: !0, retainedNodes: !6)
!523 = !DILocation(line: 1240, column: 14, scope: !524)
!524 = !DILexicalBlockFile(scope: !522, file: !188, discriminator: 0)
!525 = !DILocation(line: 1240, column: 7, scope: !524)
!526 = !DILocation(line: 1240, column: 32, scope: !524)
!527 = distinct !DISubprogram(name: "_ZSt8_DestroyIPmmEvT_S1_RSaIT0_E", linkageName: "_ZSt8_DestroyIPmmEvT_S1_RSaIT0_E", scope: null, file: !528, line: 203, type: !5, scopeLine: 203, spFlags: DISPFlagDefinition | DISPFlagOptimized, unit: !0, retainedNodes: !6)
!528 = !DIFile(filename: "/../lib/gcc/x86_64-linux-gnu/9/../../../../include/c++/9/bits/stl_construct.h", directory: "")
!529 = !DILocation(line: 207, column: 5, scope: !530)
!530 = !DILexicalBlockFile(scope: !527, file: !528, discriminator: 0)
!531 = distinct !DISubprogram(name: "_ZNSt12_Vector_baseImSaImEE13_M_deallocateEPmm", linkageName: "_ZNSt12_Vector_baseImSaImEE13_M_deallocateEPmm", scope: null, file: !98, line: 347, type: !5, scopeLine: 347, spFlags: DISPFlagDefinition | DISPFlagOptimized, unit: !0, retainedNodes: !6)
!532 = !DILocation(line: 350, column: 6, scope: !533)
!533 = !DILexicalBlockFile(scope: !531, file: !98, discriminator: 0)
!534 = !DILocation(line: 351, column: 20, scope: !533)
!535 = !DILocation(line: 351, column: 4, scope: !533)
!536 = !DILocation(line: 352, column: 7, scope: !533)
!537 = distinct !DISubprogram(name: "_ZNSt16allocator_traitsISaImEE9constructImJRKmEEEvRS0_PT_DpOT0_", linkageName: "_ZNSt16allocator_traitsISaImEE9constructImJRKmEEEvRS0_PT_DpOT0_", scope: null, file: !388, line: 481, type: !5, scopeLine: 481, spFlags: DISPFlagDefinition | DISPFlagOptimized, unit: !0, retainedNodes: !6)
!538 = !DILocation(line: 483, column: 4, scope: !539)
!539 = !DILexicalBlockFile(scope: !537, file: !388, discriminator: 0)
!540 = !DILocation(line: 483, column: 8, scope: !539)
!541 = !DILocation(line: 483, column: 56, scope: !539)
!542 = distinct !DISubprogram(name: "_ZNSt6vectorImSaImEE17_M_realloc_insertIJRKmEEEvN9__gnu_cxx17__normal_iteratorIPmS1_EEDpOT_", linkageName: "_ZNSt6vectorImSaImEE17_M_realloc_insertIJRKmEEEvN9__gnu_cxx17__normal_iteratorIPmS1_EEDpOT_", scope: null, file: !98, line: 1734, type: !5, scopeLine: 1734, spFlags: DISPFlagDefinition | DISPFlagOptimized, unit: !0, retainedNodes: !6)
!543 = !DILocation(line: 1734, column: 20, scope: !544)
!544 = !DILexicalBlockFile(scope: !542, file: !98, discriminator: 0)
!545 = !DILocation(line: 436, column: 2, scope: !546)
!546 = !DILexicalBlockFile(scope: !542, file: !279, discriminator: 0)
!547 = !DILocation(line: 437, column: 29, scope: !546)
!548 = !DILocation(line: 437, column: 35, scope: !546)
!549 = !DILocation(line: 437, column: 43, scope: !546)
!550 = !DILocation(line: 438, column: 44, scope: !546)
!551 = !DILocation(line: 438, column: 30, scope: !546)
!552 = !DILocation(line: 439, column: 53, scope: !546)
!553 = !DILocation(line: 439, column: 51, scope: !546)
!554 = !DILocation(line: 440, column: 33, scope: !546)
!555 = !DILocation(line: 449, column: 29, scope: !546)
!556 = !DILocation(line: 450, column: 20, scope: !546)
!557 = !DILocation(line: 449, column: 4, scope: !546)
!558 = !DILocation(line: 459, column: 29, scope: !546)
!559 = !DILocation(line: 459, column: 4, scope: !546)
!560 = !DILocation(line: 461, column: 59, scope: !546)
!561 = !DILocation(line: 461, column: 48, scope: !546)
!562 = !DILocation(line: 462, column: 20, scope: !546)
!563 = !DILocation(line: 964, column: 14, scope: !564, inlinedAt: !565)
!564 = !DILexicalBlockFile(scope: !542, file: !299, discriminator: 0)
!565 = !DILocation(line: 453, column: 9, scope: !544, inlinedAt: !566)
!566 = !DILocation(line: 466, column: 9, scope: !544, inlinedAt: !567)
!567 = !DILocation(line: 461, column: 23, scope: !546)
!568 = !DILocation(line: 464, column: 8, scope: !546)
!569 = !DILocation(line: 466, column: 46, scope: !546)
!570 = !DILocation(line: 466, column: 35, scope: !546)
!571 = !DILocation(line: 467, column: 21, scope: !546)
!572 = !DILocation(line: 474, column: 28, scope: !546)
!573 = !DILocation(line: 474, column: 17, scope: !546)
!574 = !DILocation(line: 475, column: 17, scope: !546)
!575 = !DILocation(line: 473, column: 5, scope: !546)
!576 = !DILocation(line: 477, column: 8, scope: !546)
!577 = !DILocation(line: 481, column: 15, scope: !546)
!578 = !DILocation(line: 481, column: 4, scope: !546)
!579 = !DILocation(line: 482, column: 18, scope: !546)
!580 = !DILocation(line: 480, column: 5, scope: !546)
!581 = !DILocation(line: 496, column: 33, scope: !546)
!582 = !DILocation(line: 0, scope: !546)
!583 = !DILocation(line: 496, column: 7, scope: !546)
!584 = !DILocation(line: 498, column: 43, scope: !546)
!585 = !DILocation(line: 501, column: 21, scope: !546)
!586 = !DILocation(line: 501, column: 7, scope: !546)
!587 = !DILocation(line: 501, column: 39, scope: !546)
!588 = !DILocation(line: 500, column: 7, scope: !546)
!589 = !DILocation(line: 502, column: 30, scope: !546)
!590 = !DILocation(line: 503, column: 31, scope: !546)
!591 = !DILocation(line: 504, column: 53, scope: !546)
!592 = !DILocation(line: 504, column: 39, scope: !546)
!593 = !DILocation(line: 505, column: 5, scope: !546)
!594 = distinct !DISubprogram(name: "_ZN9__gnu_cxx17__normal_iteratorIPmSt6vectorImSaImEEEC1EOS5_", linkageName: "_ZN9__gnu_cxx17__normal_iteratorIPmSt6vectorImSaImEEEC1EOS5_", scope: null, file: !188, line: 784, type: !5, scopeLine: 784, spFlags: DISPFlagDefinition | DISPFlagOptimized, unit: !0, retainedNodes: !6)
!595 = !DILocation(line: 784, column: 11, scope: !596)
!596 = !DILexicalBlockFile(scope: !594, file: !188, discriminator: 0)
!597 = distinct !DISubprogram(name: "_ZNSt6vectorImSaImEE3endEv", linkageName: "_ZNSt6vectorImSaImEE3endEv", scope: null, file: !98, line: 826, type: !5, scopeLine: 826, spFlags: DISPFlagDefinition | DISPFlagOptimized, unit: !0, retainedNodes: !6)
!598 = !DILocation(line: 827, column: 25, scope: !599)
!599 = !DILexicalBlockFile(scope: !597, file: !98, discriminator: 0)
!600 = !DILocation(line: 827, column: 31, scope: !599)
!601 = !DILocation(line: 827, column: 39, scope: !599)
!602 = !DILocation(line: 827, column: 16, scope: !599)
!603 = !DILocation(line: 827, column: 9, scope: !599)
!604 = !DILocation(line: 827, column: 51, scope: !599)
!605 = distinct !DISubprogram(name: "_ZNSt6vectorIiSaIiEE7reserveEm", linkageName: "_ZNSt6vectorIiSaIiEE7reserveEm", scope: null, file: !98, line: 1025, type: !5, scopeLine: 1025, spFlags: DISPFlagDefinition | DISPFlagOptimized, unit: !0, retainedNodes: !6)
!606 = !DILocation(line: 69, column: 23, scope: !607)
!607 = !DILexicalBlockFile(scope: !605, file: !279, discriminator: 0)
!608 = !DILocation(line: 69, column: 15, scope: !607)
!609 = !DILocation(line: 69, column: 7, scope: !607)
!610 = !DILocation(line: 70, column: 2, scope: !607)
!611 = !DILocation(line: 71, column: 17, scope: !607)
!612 = !DILocation(line: 71, column: 28, scope: !607)
!613 = !DILocation(line: 71, column: 7, scope: !607)
!614 = !DILocation(line: 73, column: 33, scope: !607)
!615 = !DILocation(line: 76, column: 29, scope: !607)
!616 = !DILocation(line: 76, column: 4, scope: !607)
!617 = !DILocation(line: 78, column: 16, scope: !607)
!618 = !DILocation(line: 78, column: 22, scope: !607)
!619 = !DILocation(line: 79, column: 26, scope: !607)
!620 = !DILocation(line: 79, column: 20, scope: !607)
!621 = !DILocation(line: 79, column: 34, scope: !607)
!622 = !DILocation(line: 79, column: 58, scope: !607)
!623 = !DILocation(line: 79, column: 44, scope: !607)
!624 = !DILocation(line: 80, column: 13, scope: !607)
!625 = !DILocation(line: 964, column: 14, scope: !626, inlinedAt: !627)
!626 = !DILexicalBlockFile(scope: !605, file: !299, discriminator: 0)
!627 = !DILocation(line: 453, column: 9, scope: !628, inlinedAt: !629)
!628 = !DILexicalBlockFile(scope: !605, file: !98, discriminator: 0)
!629 = !DILocation(line: 466, column: 9, scope: !628, inlinedAt: !630)
!630 = !DILocation(line: 79, column: 8, scope: !607)
!631 = !DILocation(line: 86, column: 43, scope: !607)
!632 = !DILocation(line: 86, column: 49, scope: !607)
!633 = !DILocation(line: 86, column: 57, scope: !607)
!634 = !DILocation(line: 1265, column: 3, scope: !635)
!635 = !DILexicalBlockFile(scope: !605, file: !188, discriminator: 0)
!636 = !DILocation(line: 87, column: 57, scope: !607)
!637 = !DILocation(line: 87, column: 43, scope: !607)
!638 = !DILocation(line: 85, column: 16, scope: !607)
!639 = !DILocation(line: 89, column: 8, scope: !607)
!640 = !DILocation(line: 92, column: 4, scope: !607)
!641 = !DILocation(line: 92, column: 24, scope: !607)
!642 = !DILocation(line: 92, column: 18, scope: !607)
!643 = !DILocation(line: 92, column: 32, scope: !607)
!644 = !DILocation(line: 93, column: 18, scope: !607)
!645 = !DILocation(line: 93, column: 4, scope: !607)
!646 = !DILocation(line: 94, column: 4, scope: !607)
!647 = !DILocation(line: 95, column: 27, scope: !607)
!648 = !DILocation(line: 96, column: 18, scope: !607)
!649 = !DILocation(line: 96, column: 36, scope: !607)
!650 = !DILocation(line: 96, column: 28, scope: !607)
!651 = !DILocation(line: 97, column: 38, scope: !607)
!652 = !DILocation(line: 97, column: 61, scope: !607)
!653 = !DILocation(line: 97, column: 36, scope: !607)
!654 = !DILocation(line: 99, column: 5, scope: !607)
!655 = distinct !DISubprogram(name: "_ZSt3minImERKT_S2_S2_", linkageName: "_ZSt3minImERKT_S2_S2_", scope: null, file: !656, line: 198, type: !5, scopeLine: 198, spFlags: DISPFlagDefinition | DISPFlagOptimized, unit: !0, retainedNodes: !6)
!656 = !DIFile(filename: "/../lib/gcc/x86_64-linux-gnu/9/../../../../include/c++/9/bits/stl_algobase.h", directory: "")
!657 = !DILocation(line: 203, column: 11, scope: !658)
!658 = !DILexicalBlockFile(scope: !655, file: !656, discriminator: 0)
!659 = !DILocation(line: 203, column: 17, scope: !658)
!660 = !DILocation(line: 203, column: 15, scope: !658)
!661 = !DILocation(line: 203, column: 7, scope: !658)
!662 = !DILocation(line: 206, column: 5, scope: !658)
!663 = distinct !DISubprogram(name: "_ZNKSt6vectorIiSaIiEEixEm", linkageName: "_ZNKSt6vectorIiSaIiEEixEm", scope: null, file: !98, line: 1058, type: !5, scopeLine: 1058, spFlags: DISPFlagDefinition | DISPFlagOptimized, unit: !0, retainedNodes: !6)
!664 = !DILocation(line: 1061, column: 11, scope: !665)
!665 = !DILexicalBlockFile(scope: !663, file: !98, discriminator: 0)
!666 = !DILocation(line: 1061, column: 17, scope: !665)
!667 = !DILocation(line: 1061, column: 25, scope: !665)
!668 = !DILocation(line: 1061, column: 34, scope: !665)
!669 = !DILocation(line: 1062, column: 7, scope: !665)
!670 = distinct !DISubprogram(name: "_ZN9__gnu_cxx13new_allocatorIiE9constructIiJRKiEEEvPT_DpOT0_", linkageName: "_ZN9__gnu_cxx13new_allocatorIiE9constructIiJRKiEEEvPT_DpOT0_", scope: null, file: !671, line: 144, type: !5, scopeLine: 144, spFlags: DISPFlagDefinition | DISPFlagOptimized, unit: !0, retainedNodes: !6)
!671 = !DIFile(filename: "/../lib/gcc/x86_64-linux-gnu/9/../../../../include/c++/9/ext/new_allocator.h", directory: "")
!672 = !DILocation(line: 146, column: 27, scope: !673)
!673 = !DILexicalBlockFile(scope: !670, file: !671, discriminator: 0)
!674 = !DILocation(line: 146, column: 4, scope: !673)
!675 = !DILocation(line: 146, column: 60, scope: !673)
!676 = distinct !DISubprogram(name: "_ZNKSt6vectorIiSaIiEE12_M_check_lenEmPKc", linkageName: "_ZNKSt6vectorIiSaIiEE12_M_check_lenEmPKc", scope: null, file: !98, line: 1753, type: !5, scopeLine: 1753, spFlags: DISPFlagDefinition | DISPFlagOptimized, unit: !0, retainedNodes: !6)
!677 = !DILocation(line: 1753, column: 20, scope: !678)
!678 = !DILexicalBlockFile(scope: !676, file: !98, discriminator: 0)
!679 = !DILocation(line: 1755, column: 6, scope: !678)
!680 = !DILocation(line: 1755, column: 19, scope: !678)
!681 = !DILocation(line: 1755, column: 17, scope: !678)
!682 = !DILocation(line: 1755, column: 28, scope: !678)
!683 = !DILocation(line: 1755, column: 26, scope: !678)
!684 = !DILocation(line: 1755, column: 2, scope: !678)
!685 = !DILocation(line: 1756, column: 4, scope: !678)
!686 = !DILocation(line: 1758, column: 26, scope: !678)
!687 = !DILocation(line: 1758, column: 46, scope: !678)
!688 = !DILocation(line: 1758, column: 35, scope: !678)
!689 = !DILocation(line: 1758, column: 33, scope: !678)
!690 = !DILocation(line: 1759, column: 18, scope: !678)
!691 = !DILocation(line: 1759, column: 16, scope: !678)
!692 = !DILocation(line: 1759, column: 25, scope: !678)
!693 = !DILocation(line: 1759, column: 36, scope: !678)
!694 = !DILocation(line: 1759, column: 34, scope: !678)
!695 = !DILocation(line: 1759, column: 9, scope: !678)
!696 = !DILocation(line: 1759, column: 50, scope: !678)
!697 = !DILocation(line: 1760, column: 7, scope: !678)
!698 = distinct !DISubprogram(name: "_ZN9__gnu_cxxmiIPiSt6vectorIiSaIiEEEENS_17__normal_iteratorIT_T0_E15difference_typeERKS8_SB_", linkageName: "_ZN9__gnu_cxxmiIPiSt6vectorIiSaIiEEEENS_17__normal_iteratorIT_T0_E15difference_typeERKS8_SB_", scope: null, file: !188, line: 986, type: !5, scopeLine: 986, spFlags: DISPFlagDefinition | DISPFlagOptimized, unit: !0, retainedNodes: !6)
!699 = !DILocation(line: 989, column: 20, scope: !700)
!700 = !DILexicalBlockFile(scope: !698, file: !188, discriminator: 0)
!701 = !DILocation(line: 989, column: 14, scope: !700)
!702 = !DILocation(line: 989, column: 35, scope: !700)
!703 = !DILocation(line: 989, column: 29, scope: !700)
!704 = !DILocation(line: 989, column: 27, scope: !700)
!705 = !DILocation(line: 989, column: 43, scope: !700)
!706 = distinct !DISubprogram(name: "_ZNSt12_Vector_baseIiSaIiEE11_M_allocateEm", linkageName: "_ZNSt12_Vector_baseIiSaIiEE11_M_allocateEm", scope: null, file: !98, line: 340, type: !5, scopeLine: 340, spFlags: DISPFlagDefinition | DISPFlagOptimized, unit: !0, retainedNodes: !6)
!707 = !DILocation(line: 343, column: 13, scope: !708)
!708 = !DILexicalBlockFile(scope: !706, file: !98, discriminator: 0)
!709 = !DILocation(line: 343, column: 9, scope: !708)
!710 = !DILocation(line: 343, column: 34, scope: !708)
!711 = !DILocation(line: 343, column: 20, scope: !708)
!712 = !DILocation(line: 344, column: 7, scope: !708)
!713 = distinct !DISubprogram(name: "_ZNSt6vectorIiSaIiEE15_S_use_relocateEv", linkageName: "_ZNSt6vectorIiSaIiEE15_S_use_relocateEv", scope: null, file: !98, line: 441, type: !5, scopeLine: 441, spFlags: DISPFlagDefinition | DISPFlagOptimized, unit: !0, retainedNodes: !6)
!714 = !DILocation(line: 446, column: 29, scope: !715)
!715 = !DILexicalBlockFile(scope: !713, file: !98, discriminator: 0)
!716 = !DILocation(line: 447, column: 7, scope: !715)
!717 = distinct !DISubprogram(name: "_ZNSt6vectorIiSaIiEE11_S_relocateEPiS2_S2_RS0_", linkageName: "_ZNSt6vectorIiSaIiEE11_S_relocateEPiS2_S2_RS0_", scope: null, file: !98, line: 462, type: !5, scopeLine: 462, spFlags: DISPFlagDefinition | DISPFlagOptimized, unit: !0, retainedNodes: !6)
!718 = !DILocation(line: 964, column: 14, scope: !719, inlinedAt: !720)
!719 = !DILexicalBlockFile(scope: !717, file: !299, discriminator: 0)
!720 = !DILocation(line: 453, column: 9, scope: !721, inlinedAt: !722)
!721 = !DILexicalBlockFile(scope: !717, file: !98, discriminator: 0)
!722 = !DILocation(line: 466, column: 9, scope: !721)
!723 = !DILocation(line: 467, column: 7, scope: !721)
!724 = distinct !DISubprogram(name: "_ZNSt12_Vector_baseIiSaIiEE19_M_get_Tp_allocatorEv", linkageName: "_ZNSt12_Vector_baseIiSaIiEE19_M_get_Tp_allocatorEv", scope: null, file: !98, line: 273, type: !5, scopeLine: 273, spFlags: DISPFlagDefinition | DISPFlagOptimized, unit: !0, retainedNodes: !6)
!725 = !DILocation(line: 274, column: 22, scope: !726)
!726 = !DILexicalBlockFile(scope: !724, file: !98, discriminator: 0)
!727 = !DILocation(line: 274, column: 16, scope: !726)
!728 = !DILocation(line: 274, column: 31, scope: !726)
!729 = distinct !DISubprogram(name: "_ZSt34__uninitialized_move_if_noexcept_aIPiS0_SaIiEET0_T_S3_S2_RT1_", linkageName: "_ZSt34__uninitialized_move_if_noexcept_aIPiS0_SaIiEET0_T_S3_S2_RT1_", scope: null, file: !299, line: 323, type: !5, scopeLine: 323, spFlags: DISPFlagDefinition | DISPFlagOptimized, unit: !0, retainedNodes: !6)
!730 = !DILocation(line: 1265, column: 3, scope: !731)
!731 = !DILexicalBlockFile(scope: !729, file: !188, discriminator: 0)
!732 = !DILocation(line: 328, column: 14, scope: !733)
!733 = !DILexicalBlockFile(scope: !729, file: !299, discriminator: 0)
!734 = !DILocation(line: 331, column: 5, scope: !733)
!735 = distinct !DISubprogram(name: "_ZSt8_DestroyIPiiEvT_S1_RSaIT0_E", linkageName: "_ZSt8_DestroyIPiiEvT_S1_RSaIT0_E", scope: null, file: !528, line: 203, type: !5, scopeLine: 203, spFlags: DISPFlagDefinition | DISPFlagOptimized, unit: !0, retainedNodes: !6)
!736 = !DILocation(line: 207, column: 5, scope: !737)
!737 = !DILexicalBlockFile(scope: !735, file: !528, discriminator: 0)
!738 = distinct !DISubprogram(name: "_ZNSt12_Vector_baseIiSaIiEE13_M_deallocateEPim", linkageName: "_ZNSt12_Vector_baseIiSaIiEE13_M_deallocateEPim", scope: null, file: !98, line: 347, type: !5, scopeLine: 347, spFlags: DISPFlagDefinition | DISPFlagOptimized, unit: !0, retainedNodes: !6)
!739 = !DILocation(line: 350, column: 6, scope: !740)
!740 = !DILexicalBlockFile(scope: !738, file: !98, discriminator: 0)
!741 = !DILocation(line: 351, column: 20, scope: !740)
!742 = !DILocation(line: 351, column: 4, scope: !740)
!743 = !DILocation(line: 352, column: 7, scope: !740)
!744 = distinct !DISubprogram(name: "_ZNSaIiEC1Ev", linkageName: "_ZNSaIiEC1Ev", scope: null, file: !745, line: 137, type: !5, scopeLine: 137, spFlags: DISPFlagDefinition | DISPFlagOptimized, unit: !0, retainedNodes: !6)
!745 = !DIFile(filename: "/../lib/gcc/x86_64-linux-gnu/9/../../../../include/c++/9/bits/allocator.h", directory: "")
!746 = !DILocation(line: 137, column: 38, scope: !747)
!747 = !DILexicalBlockFile(scope: !744, file: !745, discriminator: 0)
!748 = distinct !DISubprogram(name: "_ZNSt12_Vector_baseIiSaIiEE17_Vector_impl_dataC1Ev", linkageName: "_ZNSt12_Vector_baseIiSaIiEE17_Vector_impl_dataC1Ev", scope: null, file: !98, line: 94, type: !5, scopeLine: 94, spFlags: DISPFlagDefinition | DISPFlagOptimized, unit: !0, retainedNodes: !6)
!749 = !DILocation(line: 94, column: 2, scope: !750)
!750 = !DILexicalBlockFile(scope: !748, file: !98, discriminator: 0)
!751 = !DILocation(line: 96, column: 4, scope: !750)
!752 = distinct !DISubprogram(name: "_ZNSt12_Vector_baseImSaImEE12_Vector_implC1Ev", linkageName: "_ZNSt12_Vector_baseImSaImEE12_Vector_implC1Ev", scope: null, file: !98, line: 128, type: !5, scopeLine: 128, spFlags: DISPFlagDefinition | DISPFlagOptimized, unit: !0, retainedNodes: !6)
!753 = !DILocation(line: 128, column: 2, scope: !754)
!754 = !DILexicalBlockFile(scope: !752, file: !98, discriminator: 0)
!755 = !DILocation(line: 131, column: 4, scope: !754)
!756 = distinct !DISubprogram(name: "_ZNSt6vectorImSaImEE11_S_max_sizeERKS0_", linkageName: "_ZNSt6vectorImSaImEE11_S_max_sizeERKS0_", scope: null, file: !98, line: 1773, type: !5, scopeLine: 1773, spFlags: DISPFlagDefinition | DISPFlagOptimized, unit: !0, retainedNodes: !6)
!757 = !DILocation(line: 1780, column: 2, scope: !758)
!758 = !DILexicalBlockFile(scope: !756, file: !98, discriminator: 0)
!759 = !DILocation(line: 1778, column: 2, scope: !758)
!760 = !DILocation(line: 1781, column: 9, scope: !758)
!761 = !DILocation(line: 1782, column: 7, scope: !758)
!762 = distinct !DISubprogram(name: "_ZNKSt12_Vector_baseImSaImEE19_M_get_Tp_allocatorEv", linkageName: "_ZNKSt12_Vector_baseImSaImEE19_M_get_Tp_allocatorEv", scope: null, file: !98, line: 277, type: !5, scopeLine: 277, spFlags: DISPFlagDefinition | DISPFlagOptimized, unit: !0, retainedNodes: !6)
!763 = !DILocation(line: 278, column: 22, scope: !764)
!764 = !DILexicalBlockFile(scope: !762, file: !98, discriminator: 0)
!765 = !DILocation(line: 278, column: 16, scope: !764)
!766 = !DILocation(line: 278, column: 31, scope: !764)
!767 = distinct !DISubprogram(name: "_ZNSt6vectorImSaImEE19_S_nothrow_relocateESt17integral_constantIbLb1EE", linkageName: "_ZNSt6vectorImSaImEE19_S_nothrow_relocateESt17integral_constantIbLb1EE", scope: null, file: !98, line: 428, type: !5, scopeLine: 428, spFlags: DISPFlagDefinition | DISPFlagOptimized, unit: !0, retainedNodes: !6)
!768 = !DILocation(line: 434, column: 7, scope: !769)
!769 = !DILexicalBlockFile(scope: !767, file: !98, discriminator: 0)
!770 = distinct !DISubprogram(name: "_ZNSt17integral_constantIbLb1EEC1EOS0_", linkageName: "_ZNSt17integral_constantIbLb1EEC1EOS0_", scope: null, file: !771, line: 57, type: !5, scopeLine: 57, spFlags: DISPFlagDefinition | DISPFlagOptimized, unit: !0, retainedNodes: !6)
!771 = !DIFile(filename: "/../lib/gcc/x86_64-linux-gnu/9/../../../../include/c++/9/type_traits", directory: "")
!772 = !DILocation(line: 57, column: 12, scope: !773)
!773 = !DILexicalBlockFile(scope: !770, file: !771, discriminator: 0)
!774 = distinct !DISubprogram(name: "_ZNSt16allocator_traitsISaImEE8allocateERS0_m", linkageName: "_ZNSt16allocator_traitsISaImEE8allocateERS0_m", scope: null, file: !388, line: 442, type: !5, scopeLine: 442, spFlags: DISPFlagDefinition | DISPFlagOptimized, unit: !0, retainedNodes: !6)
!775 = !DILocation(line: 443, column: 16, scope: !776)
!776 = !DILexicalBlockFile(scope: !774, file: !388, discriminator: 0)
!777 = !DILocation(line: 443, column: 20, scope: !776)
!778 = !DILocation(line: 443, column: 35, scope: !776)
!779 = distinct !DISubprogram(name: "_ZNSt6vectorImSaImEE14_S_do_relocateEPmS2_S2_RS0_St17integral_constantIbLb1EE", linkageName: "_ZNSt6vectorImSaImEE14_S_do_relocateEPmS2_S2_RS0_St17integral_constantIbLb1EE", scope: null, file: !98, line: 450, type: !5, scopeLine: 450, spFlags: DISPFlagDefinition | DISPFlagOptimized, unit: !0, retainedNodes: !6)
!780 = !DILocation(line: 964, column: 14, scope: !781, inlinedAt: !782)
!781 = !DILexicalBlockFile(scope: !779, file: !299, discriminator: 0)
!782 = !DILocation(line: 453, column: 9, scope: !783)
!783 = !DILexicalBlockFile(scope: !779, file: !98, discriminator: 0)
!784 = !DILocation(line: 454, column: 7, scope: !783)
!785 = distinct !DISubprogram(name: "_ZSt22__uninitialized_copy_aISt13move_iteratorIPmES1_mET0_T_S4_S3_RSaIT1_E", linkageName: "_ZSt22__uninitialized_copy_aISt13move_iteratorIPmES1_mET0_T_S4_S3_RSaIT1_E", scope: null, file: !299, line: 305, type: !5, scopeLine: 305, spFlags: DISPFlagDefinition | DISPFlagOptimized, unit: !0, retainedNodes: !6)
!786 = !DILocation(line: 305, column: 52, scope: !787)
!787 = !DILexicalBlockFile(scope: !785, file: !299, discriminator: 0)
!788 = !DILocation(line: 305, column: 28, scope: !787)
!789 = !DILocation(line: 307, column: 38, scope: !787)
!790 = !DILocation(line: 307, column: 47, scope: !787)
!791 = !DILocation(line: 307, column: 14, scope: !787)
!792 = !DILocation(line: 307, column: 66, scope: !787)
!793 = distinct !DISubprogram(name: "_ZNSt13move_iteratorIPmEC1ERKS1_", linkageName: "_ZNSt13move_iteratorIPmEC1ERKS1_", scope: null, file: !188, line: 1028, type: !5, scopeLine: 1028, spFlags: DISPFlagDefinition | DISPFlagOptimized, unit: !0, retainedNodes: !6)
!794 = !DILocation(line: 1028, column: 11, scope: !795)
!795 = !DILexicalBlockFile(scope: !793, file: !188, discriminator: 0)
!796 = distinct !DISubprogram(name: "_ZNSt13move_iteratorIPmEC1ES0_", linkageName: "_ZNSt13move_iteratorIPmEC1ES0_", scope: null, file: !188, line: 1054, type: !5, scopeLine: 1054, spFlags: DISPFlagDefinition | DISPFlagOptimized, unit: !0, retainedNodes: !6)
!797 = !DILocation(line: 1053, column: 7, scope: !798)
!798 = !DILexicalBlockFile(scope: !796, file: !188, discriminator: 0)
!799 = !DILocation(line: 1055, column: 27, scope: !798)
!800 = distinct !DISubprogram(name: "_ZSt8_DestroyIPmEvT_S1_", linkageName: "_ZSt8_DestroyIPmEvT_S1_", scope: null, file: !528, line: 127, type: !5, scopeLine: 127, spFlags: DISPFlagDefinition | DISPFlagOptimized, unit: !0, retainedNodes: !6)
!801 = !DILocation(line: 138, column: 5, scope: !802)
!802 = !DILexicalBlockFile(scope: !800, file: !528, discriminator: 0)
!803 = distinct !DISubprogram(name: "_ZNSt16allocator_traitsISaImEE10deallocateERS0_Pmm", linkageName: "_ZNSt16allocator_traitsISaImEE10deallocateERS0_Pmm", scope: null, file: !388, line: 468, type: !5, scopeLine: 468, spFlags: DISPFlagDefinition | DISPFlagOptimized, unit: !0, retainedNodes: !6)
!804 = !DILocation(line: 469, column: 9, scope: !805)
!805 = !DILexicalBlockFile(scope: !803, file: !388, discriminator: 0)
!806 = !DILocation(line: 469, column: 13, scope: !805)
!807 = !DILocation(line: 469, column: 35, scope: !805)
!808 = distinct !DISubprogram(name: "_ZN9__gnu_cxx13new_allocatorImE9constructImJRKmEEEvPT_DpOT0_", linkageName: "_ZN9__gnu_cxx13new_allocatorImE9constructImJRKmEEEvPT_DpOT0_", scope: null, file: !671, line: 144, type: !5, scopeLine: 144, spFlags: DISPFlagDefinition | DISPFlagOptimized, unit: !0, retainedNodes: !6)
!809 = !DILocation(line: 146, column: 27, scope: !810)
!810 = !DILexicalBlockFile(scope: !808, file: !671, discriminator: 0)
!811 = !DILocation(line: 146, column: 4, scope: !810)
!812 = !DILocation(line: 146, column: 60, scope: !810)
!813 = distinct !DISubprogram(name: "_ZNKSt6vectorImSaImEE12_M_check_lenEmPKc", linkageName: "_ZNKSt6vectorImSaImEE12_M_check_lenEmPKc", scope: null, file: !98, line: 1753, type: !5, scopeLine: 1753, spFlags: DISPFlagDefinition | DISPFlagOptimized, unit: !0, retainedNodes: !6)
!814 = !DILocation(line: 1753, column: 20, scope: !815)
!815 = !DILexicalBlockFile(scope: !813, file: !98, discriminator: 0)
!816 = !DILocation(line: 1755, column: 6, scope: !815)
!817 = !DILocation(line: 1755, column: 19, scope: !815)
!818 = !DILocation(line: 1755, column: 17, scope: !815)
!819 = !DILocation(line: 1755, column: 28, scope: !815)
!820 = !DILocation(line: 1755, column: 26, scope: !815)
!821 = !DILocation(line: 1755, column: 2, scope: !815)
!822 = !DILocation(line: 1756, column: 4, scope: !815)
!823 = !DILocation(line: 1758, column: 26, scope: !815)
!824 = !DILocation(line: 1758, column: 46, scope: !815)
!825 = !DILocation(line: 1758, column: 35, scope: !815)
!826 = !DILocation(line: 1758, column: 33, scope: !815)
!827 = !DILocation(line: 1759, column: 18, scope: !815)
!828 = !DILocation(line: 1759, column: 16, scope: !815)
!829 = !DILocation(line: 1759, column: 25, scope: !815)
!830 = !DILocation(line: 1759, column: 36, scope: !815)
!831 = !DILocation(line: 1759, column: 34, scope: !815)
!832 = !DILocation(line: 1759, column: 9, scope: !815)
!833 = !DILocation(line: 1759, column: 50, scope: !815)
!834 = !DILocation(line: 1760, column: 7, scope: !815)
!835 = distinct !DISubprogram(name: "_ZN9__gnu_cxxmiIPmSt6vectorImSaImEEEENS_17__normal_iteratorIT_T0_E15difference_typeERKS8_SB_", linkageName: "_ZN9__gnu_cxxmiIPmSt6vectorImSaImEEEENS_17__normal_iteratorIT_T0_E15difference_typeERKS8_SB_", scope: null, file: !188, line: 986, type: !5, scopeLine: 986, spFlags: DISPFlagDefinition | DISPFlagOptimized, unit: !0, retainedNodes: !6)
!836 = !DILocation(line: 989, column: 20, scope: !837)
!837 = !DILexicalBlockFile(scope: !835, file: !188, discriminator: 0)
!838 = !DILocation(line: 989, column: 14, scope: !837)
!839 = !DILocation(line: 989, column: 35, scope: !837)
!840 = !DILocation(line: 989, column: 29, scope: !837)
!841 = !DILocation(line: 989, column: 27, scope: !837)
!842 = !DILocation(line: 989, column: 43, scope: !837)
!843 = distinct !DISubprogram(name: "_ZNSt6vectorImSaImEE5beginEv", linkageName: "_ZNSt6vectorImSaImEE5beginEv", scope: null, file: !98, line: 808, type: !5, scopeLine: 808, spFlags: DISPFlagDefinition | DISPFlagOptimized, unit: !0, retainedNodes: !6)
!844 = !DILocation(line: 809, column: 25, scope: !845)
!845 = !DILexicalBlockFile(scope: !843, file: !98, discriminator: 0)
!846 = !DILocation(line: 809, column: 31, scope: !845)
!847 = !DILocation(line: 809, column: 39, scope: !845)
!848 = !DILocation(line: 809, column: 16, scope: !845)
!849 = !DILocation(line: 809, column: 9, scope: !845)
!850 = !DILocation(line: 809, column: 50, scope: !845)
!851 = distinct !DISubprogram(name: "_ZNK9__gnu_cxx17__normal_iteratorIPmSt6vectorImSaImEEE4baseEv", linkageName: "_ZNK9__gnu_cxx17__normal_iteratorIPmSt6vectorImSaImEEE4baseEv", scope: null, file: !188, line: 868, type: !5, scopeLine: 868, spFlags: DISPFlagDefinition | DISPFlagOptimized, unit: !0, retainedNodes: !6)
!852 = !DILocation(line: 869, column: 16, scope: !853)
!853 = !DILexicalBlockFile(scope: !851, file: !188, discriminator: 0)
!854 = !DILocation(line: 869, column: 28, scope: !853)
!855 = distinct !DISubprogram(name: "_ZSt34__uninitialized_move_if_noexcept_aIPmS0_SaImEET0_T_S3_S2_RT1_", linkageName: "_ZSt34__uninitialized_move_if_noexcept_aIPmS0_SaImEET0_T_S3_S2_RT1_", scope: null, file: !299, line: 323, type: !5, scopeLine: 323, spFlags: DISPFlagDefinition | DISPFlagOptimized, unit: !0, retainedNodes: !6)
!856 = !DILocation(line: 1265, column: 3, scope: !857)
!857 = !DILexicalBlockFile(scope: !855, file: !188, discriminator: 0)
!858 = !DILocation(line: 328, column: 14, scope: !859)
!859 = !DILexicalBlockFile(scope: !855, file: !299, discriminator: 0)
!860 = !DILocation(line: 331, column: 5, scope: !859)
!861 = distinct !DISubprogram(name: "_ZN9__gnu_cxx17__normal_iteratorIPmSt6vectorImSaImEEEC1ERKS1_", linkageName: "_ZN9__gnu_cxx17__normal_iteratorIPmSt6vectorImSaImEEEC1ERKS1_", scope: null, file: !188, line: 803, type: !5, scopeLine: 803, spFlags: DISPFlagDefinition | DISPFlagOptimized, unit: !0, retainedNodes: !6)
!862 = !DILocation(line: 804, column: 20, scope: !863)
!863 = !DILexicalBlockFile(scope: !861, file: !188, discriminator: 0)
!864 = !DILocation(line: 802, column: 7, scope: !863)
!865 = !DILocation(line: 804, column: 27, scope: !863)
!866 = distinct !DISubprogram(name: "_ZNKSt6vectorIiSaIiEE8max_sizeEv", linkageName: "_ZNKSt6vectorIiSaIiEE8max_sizeEv", scope: null, file: !98, line: 920, type: !5, scopeLine: 920, spFlags: DISPFlagDefinition | DISPFlagOptimized, unit: !0, retainedNodes: !6)
!867 = !DILocation(line: 921, column: 28, scope: !868)
!868 = !DILexicalBlockFile(scope: !866, file: !98, discriminator: 0)
!869 = !DILocation(line: 921, column: 16, scope: !868)
!870 = !DILocation(line: 921, column: 52, scope: !868)
!871 = distinct !DISubprogram(name: "_ZNKSt6vectorIiSaIiEE8capacityEv", linkageName: "_ZNKSt6vectorIiSaIiEE8capacityEv", scope: null, file: !98, line: 995, type: !5, scopeLine: 995, spFlags: DISPFlagDefinition | DISPFlagOptimized, unit: !0, retainedNodes: !6)
!872 = !DILocation(line: 996, column: 26, scope: !873)
!873 = !DILexicalBlockFile(scope: !871, file: !98, discriminator: 0)
!874 = !DILocation(line: 996, column: 32, scope: !873)
!875 = !DILocation(line: 996, column: 40, scope: !873)
!876 = !DILocation(line: 997, column: 21, scope: !873)
!877 = !DILocation(line: 997, column: 7, scope: !873)
!878 = !DILocation(line: 997, column: 5, scope: !873)
!879 = !DILocation(line: 997, column: 32, scope: !873)
!880 = distinct !DISubprogram(name: "_ZNSt6vectorIiSaIiEE20_M_allocate_and_copyISt13move_iteratorIPiEEES4_mT_S6_", linkageName: "_ZNSt6vectorIiSaIiEE20_M_allocate_and_copyISt13move_iteratorIPiEEES4_mT_S6_", scope: null, file: !98, line: 1505, type: !5, scopeLine: 1505, spFlags: DISPFlagDefinition | DISPFlagOptimized, unit: !0, retainedNodes: !6)
!881 = !DILocation(line: 1506, column: 35, scope: !882)
!882 = !DILexicalBlockFile(scope: !880, file: !98, discriminator: 0)
!883 = !DILocation(line: 1506, column: 9, scope: !882)
!884 = !DILocation(line: 1508, column: 23, scope: !882)
!885 = !DILocation(line: 1508, column: 29, scope: !882)
!886 = !DILocation(line: 1511, column: 36, scope: !882)
!887 = !DILocation(line: 1511, column: 45, scope: !882)
!888 = !DILocation(line: 1512, column: 8, scope: !882)
!889 = !DILocation(line: 1511, column: 8, scope: !882)
!890 = !DILocation(line: 1520, column: 2, scope: !882)
!891 = distinct !DISubprogram(name: "_ZNSt13move_iteratorIPiEC1EOS1_", linkageName: "_ZNSt13move_iteratorIPiEC1EOS1_", scope: null, file: !188, line: 1028, type: !5, scopeLine: 1028, spFlags: DISPFlagDefinition | DISPFlagOptimized, unit: !0, retainedNodes: !6)
!892 = !DILocation(line: 1028, column: 11, scope: !893)
!893 = !DILexicalBlockFile(scope: !891, file: !188, discriminator: 0)
!894 = distinct !DISubprogram(name: "_ZSt32__make_move_if_noexcept_iteratorIiSt13move_iteratorIPiEET0_PT_", linkageName: "_ZSt32__make_move_if_noexcept_iteratorIiSt13move_iteratorIPiEET0_PT_", scope: null, file: !188, line: 1239, type: !5, scopeLine: 1239, spFlags: DISPFlagDefinition | DISPFlagOptimized, unit: !0, retainedNodes: !6)
!895 = !DILocation(line: 1240, column: 14, scope: !896)
!896 = !DILexicalBlockFile(scope: !894, file: !188, discriminator: 0)
!897 = !DILocation(line: 1240, column: 7, scope: !896)
!898 = !DILocation(line: 1240, column: 32, scope: !896)
!899 = distinct !DISubprogram(name: "_ZSt3maxImERKT_S2_S2_", linkageName: "_ZSt3maxImERKT_S2_S2_", scope: null, file: !656, line: 222, type: !5, scopeLine: 222, spFlags: DISPFlagDefinition | DISPFlagOptimized, unit: !0, retainedNodes: !6)
!900 = !DILocation(line: 227, column: 11, scope: !901)
!901 = !DILexicalBlockFile(scope: !899, file: !656, discriminator: 0)
!902 = !DILocation(line: 227, column: 17, scope: !901)
!903 = !DILocation(line: 227, column: 15, scope: !901)
!904 = !DILocation(line: 227, column: 7, scope: !901)
!905 = !DILocation(line: 230, column: 5, scope: !901)
!906 = distinct !DISubprogram(name: "_ZNSt16allocator_traitsISaIiEE8allocateERS0_m", linkageName: "_ZNSt16allocator_traitsISaIiEE8allocateERS0_m", scope: null, file: !388, line: 442, type: !5, scopeLine: 442, spFlags: DISPFlagDefinition | DISPFlagOptimized, unit: !0, retainedNodes: !6)
!907 = !DILocation(line: 443, column: 16, scope: !908)
!908 = !DILexicalBlockFile(scope: !906, file: !388, discriminator: 0)
!909 = !DILocation(line: 443, column: 20, scope: !908)
!910 = !DILocation(line: 443, column: 35, scope: !908)
!911 = distinct !DISubprogram(name: "_ZNSt6vectorIiSaIiEE19_S_nothrow_relocateESt17integral_constantIbLb1EE", linkageName: "_ZNSt6vectorIiSaIiEE19_S_nothrow_relocateESt17integral_constantIbLb1EE", scope: null, file: !98, line: 428, type: !5, scopeLine: 428, spFlags: DISPFlagDefinition | DISPFlagOptimized, unit: !0, retainedNodes: !6)
!912 = !DILocation(line: 434, column: 7, scope: !913)
!913 = !DILexicalBlockFile(scope: !911, file: !98, discriminator: 0)
!914 = distinct !DISubprogram(name: "_ZNSt6vectorIiSaIiEE14_S_do_relocateEPiS2_S2_RS0_St17integral_constantIbLb1EE", linkageName: "_ZNSt6vectorIiSaIiEE14_S_do_relocateEPiS2_S2_RS0_St17integral_constantIbLb1EE", scope: null, file: !98, line: 450, type: !5, scopeLine: 450, spFlags: DISPFlagDefinition | DISPFlagOptimized, unit: !0, retainedNodes: !6)
!915 = !DILocation(line: 964, column: 14, scope: !916, inlinedAt: !917)
!916 = !DILexicalBlockFile(scope: !914, file: !299, discriminator: 0)
!917 = !DILocation(line: 453, column: 9, scope: !918)
!918 = !DILexicalBlockFile(scope: !914, file: !98, discriminator: 0)
!919 = !DILocation(line: 454, column: 7, scope: !918)
!920 = distinct !DISubprogram(name: "_ZSt22__uninitialized_copy_aISt13move_iteratorIPiES1_iET0_T_S4_S3_RSaIT1_E", linkageName: "_ZSt22__uninitialized_copy_aISt13move_iteratorIPiES1_iET0_T_S4_S3_RSaIT1_E", scope: null, file: !299, line: 305, type: !5, scopeLine: 305, spFlags: DISPFlagDefinition | DISPFlagOptimized, unit: !0, retainedNodes: !6)
!921 = !DILocation(line: 305, column: 52, scope: !922)
!922 = !DILexicalBlockFile(scope: !920, file: !299, discriminator: 0)
!923 = !DILocation(line: 305, column: 28, scope: !922)
!924 = !DILocation(line: 307, column: 38, scope: !922)
!925 = !DILocation(line: 307, column: 47, scope: !922)
!926 = !DILocation(line: 307, column: 14, scope: !922)
!927 = !DILocation(line: 307, column: 66, scope: !922)
!928 = distinct !DISubprogram(name: "_ZSt8_DestroyIPiEvT_S1_", linkageName: "_ZSt8_DestroyIPiEvT_S1_", scope: null, file: !528, line: 127, type: !5, scopeLine: 127, spFlags: DISPFlagDefinition | DISPFlagOptimized, unit: !0, retainedNodes: !6)
!929 = !DILocation(line: 138, column: 5, scope: !930)
!930 = !DILexicalBlockFile(scope: !928, file: !528, discriminator: 0)
!931 = distinct !DISubprogram(name: "_ZNSt16allocator_traitsISaIiEE10deallocateERS0_Pim", linkageName: "_ZNSt16allocator_traitsISaIiEE10deallocateERS0_Pim", scope: null, file: !388, line: 468, type: !5, scopeLine: 468, spFlags: DISPFlagDefinition | DISPFlagOptimized, unit: !0, retainedNodes: !6)
!932 = !DILocation(line: 469, column: 9, scope: !933)
!933 = !DILexicalBlockFile(scope: !931, file: !388, discriminator: 0)
!934 = !DILocation(line: 469, column: 13, scope: !933)
!935 = !DILocation(line: 469, column: 35, scope: !933)
!936 = distinct !DISubprogram(name: "_ZN9__gnu_cxx13new_allocatorIiEC1Ev", linkageName: "_ZN9__gnu_cxx13new_allocatorIiEC1Ev", scope: null, file: !671, line: 80, type: !5, scopeLine: 80, spFlags: DISPFlagDefinition | DISPFlagOptimized, unit: !0, retainedNodes: !6)
!937 = !DILocation(line: 80, column: 47, scope: !938)
!938 = !DILexicalBlockFile(scope: !936, file: !671, discriminator: 0)
!939 = distinct !DISubprogram(name: "_ZNSaImEC1Ev", linkageName: "_ZNSaImEC1Ev", scope: null, file: !745, line: 137, type: !5, scopeLine: 137, spFlags: DISPFlagDefinition | DISPFlagOptimized, unit: !0, retainedNodes: !6)
!940 = !DILocation(line: 137, column: 38, scope: !941)
!941 = !DILexicalBlockFile(scope: !939, file: !745, discriminator: 0)
!942 = distinct !DISubprogram(name: "_ZNSt12_Vector_baseImSaImEE17_Vector_impl_dataC1Ev", linkageName: "_ZNSt12_Vector_baseImSaImEE17_Vector_impl_dataC1Ev", scope: null, file: !98, line: 94, type: !5, scopeLine: 94, spFlags: DISPFlagDefinition | DISPFlagOptimized, unit: !0, retainedNodes: !6)
!943 = !DILocation(line: 94, column: 2, scope: !944)
!944 = !DILexicalBlockFile(scope: !942, file: !98, discriminator: 0)
!945 = !DILocation(line: 96, column: 4, scope: !944)
!946 = distinct !DISubprogram(name: "_ZNSt16allocator_traitsISaImEE8max_sizeERKS0_", linkageName: "_ZNSt16allocator_traitsISaImEE8max_sizeERKS0_", scope: null, file: !388, line: 504, type: !5, scopeLine: 504, spFlags: DISPFlagDefinition | DISPFlagOptimized, unit: !0, retainedNodes: !6)
!947 = !DILocation(line: 505, column: 32, scope: !948)
!948 = !DILexicalBlockFile(scope: !946, file: !388, discriminator: 0)
!949 = distinct !DISubprogram(name: "_ZN9__gnu_cxx13new_allocatorImE8allocateEmPKv", linkageName: "_ZN9__gnu_cxx13new_allocatorImE8allocateEmPKv", scope: null, file: !671, line: 102, type: !5, scopeLine: 102, spFlags: DISPFlagDefinition | DISPFlagOptimized, unit: !0, retainedNodes: !6)
!950 = !DILocation(line: 104, column: 10, scope: !951)
!951 = !DILexicalBlockFile(scope: !949, file: !671, discriminator: 0)
!952 = !DILocation(line: 104, column: 2, scope: !951)
!953 = !DILocation(line: 105, column: 4, scope: !951)
!954 = !DILocation(line: 114, column: 46, scope: !951)
!955 = !DILocation(line: 114, column: 27, scope: !951)
!956 = !DILocation(line: 114, column: 9, scope: !951)
!957 = !DILocation(line: 115, column: 7, scope: !951)
!958 = distinct !DISubprogram(name: "_ZSt12__relocate_aIPmS0_SaImEET0_T_S3_S2_RT1_", linkageName: "_ZSt12__relocate_aIPmS0_SaImEET0_T_S3_S2_RT1_", scope: null, file: !299, line: 958, type: !5, scopeLine: 958, spFlags: DISPFlagDefinition | DISPFlagOptimized, unit: !0, retainedNodes: !6)
!959 = !DILocation(line: 964, column: 14, scope: !960)
!960 = !DILexicalBlockFile(scope: !958, file: !299, discriminator: 0)
!961 = !DILocation(line: 967, column: 5, scope: !960)
!962 = distinct !DISubprogram(name: "_ZSt18uninitialized_copyISt13move_iteratorIPmES1_ET0_T_S4_S3_", linkageName: "_ZSt18uninitialized_copyISt13move_iteratorIPmES1_ET0_T_S4_S3_", scope: null, file: !299, line: 115, type: !5, scopeLine: 115, spFlags: DISPFlagDefinition | DISPFlagOptimized, unit: !0, retainedNodes: !6)
!963 = !DILocation(line: 115, column: 48, scope: !964)
!964 = !DILexicalBlockFile(scope: !962, file: !299, discriminator: 0)
!965 = !DILocation(line: 115, column: 24, scope: !964)
!966 = !DILocation(line: 140, column: 16, scope: !964)
!967 = !DILocation(line: 140, column: 25, scope: !964)
!968 = !DILocation(line: 137, column: 14, scope: !964)
!969 = !DILocation(line: 141, column: 5, scope: !964)
!970 = distinct !DISubprogram(name: "_ZNSt12_Destroy_auxILb1EE9__destroyIPmEEvT_S3_", linkageName: "_ZNSt12_Destroy_auxILb1EE9__destroyIPmEEvT_S3_", scope: null, file: !528, line: 117, type: !5, scopeLine: 117, spFlags: DISPFlagDefinition | DISPFlagOptimized, unit: !0, retainedNodes: !6)
!971 = !DILocation(line: 117, column: 57, scope: !972)
!972 = !DILexicalBlockFile(scope: !970, file: !528, discriminator: 0)
!973 = distinct !DISubprogram(name: "_ZN9__gnu_cxx13new_allocatorImE10deallocateEPmm", linkageName: "_ZN9__gnu_cxx13new_allocatorImE10deallocateEPmm", scope: null, file: !671, line: 119, type: !5, scopeLine: 119, spFlags: DISPFlagDefinition | DISPFlagOptimized, unit: !0, retainedNodes: !6)
!974 = !DILocation(line: 128, column: 20, scope: !975)
!975 = !DILexicalBlockFile(scope: !973, file: !671, discriminator: 0)
!976 = !DILocation(line: 128, column: 2, scope: !975)
!977 = !DILocation(line: 129, column: 7, scope: !975)
!978 = distinct !DISubprogram(name: "_ZNSt6vectorIiSaIiEE11_S_max_sizeERKS0_", linkageName: "_ZNSt6vectorIiSaIiEE11_S_max_sizeERKS0_", scope: null, file: !98, line: 1773, type: !5, scopeLine: 1773, spFlags: DISPFlagDefinition | DISPFlagOptimized, unit: !0, retainedNodes: !6)
!979 = !DILocation(line: 1780, column: 2, scope: !980)
!980 = !DILexicalBlockFile(scope: !978, file: !98, discriminator: 0)
!981 = !DILocation(line: 1778, column: 2, scope: !980)
!982 = !DILocation(line: 1781, column: 9, scope: !980)
!983 = !DILocation(line: 1782, column: 7, scope: !980)
!984 = distinct !DISubprogram(name: "_ZNKSt12_Vector_baseIiSaIiEE19_M_get_Tp_allocatorEv", linkageName: "_ZNKSt12_Vector_baseIiSaIiEE19_M_get_Tp_allocatorEv", scope: null, file: !98, line: 277, type: !5, scopeLine: 277, spFlags: DISPFlagDefinition | DISPFlagOptimized, unit: !0, retainedNodes: !6)
!985 = !DILocation(line: 278, column: 22, scope: !986)
!986 = !DILexicalBlockFile(scope: !984, file: !98, discriminator: 0)
!987 = !DILocation(line: 278, column: 16, scope: !986)
!988 = !DILocation(line: 278, column: 31, scope: !986)
!989 = distinct !DISubprogram(name: "_ZNSt13move_iteratorIPiEC1ERKS1_", linkageName: "_ZNSt13move_iteratorIPiEC1ERKS1_", scope: null, file: !188, line: 1028, type: !5, scopeLine: 1028, spFlags: DISPFlagDefinition | DISPFlagOptimized, unit: !0, retainedNodes: !6)
!990 = !DILocation(line: 1028, column: 11, scope: !991)
!991 = !DILexicalBlockFile(scope: !989, file: !188, discriminator: 0)
!992 = distinct !DISubprogram(name: "_ZNSt13move_iteratorIPiEC1ES0_", linkageName: "_ZNSt13move_iteratorIPiEC1ES0_", scope: null, file: !188, line: 1054, type: !5, scopeLine: 1054, spFlags: DISPFlagDefinition | DISPFlagOptimized, unit: !0, retainedNodes: !6)
!993 = !DILocation(line: 1053, column: 7, scope: !994)
!994 = !DILexicalBlockFile(scope: !992, file: !188, discriminator: 0)
!995 = !DILocation(line: 1055, column: 27, scope: !994)
!996 = distinct !DISubprogram(name: "_ZN9__gnu_cxx13new_allocatorIiE8allocateEmPKv", linkageName: "_ZN9__gnu_cxx13new_allocatorIiE8allocateEmPKv", scope: null, file: !671, line: 102, type: !5, scopeLine: 102, spFlags: DISPFlagDefinition | DISPFlagOptimized, unit: !0, retainedNodes: !6)
!997 = !DILocation(line: 104, column: 10, scope: !998)
!998 = !DILexicalBlockFile(scope: !996, file: !671, discriminator: 0)
!999 = !DILocation(line: 104, column: 2, scope: !998)
!1000 = !DILocation(line: 105, column: 4, scope: !998)
!1001 = !DILocation(line: 114, column: 46, scope: !998)
!1002 = !DILocation(line: 114, column: 27, scope: !998)
!1003 = !DILocation(line: 114, column: 9, scope: !998)
!1004 = !DILocation(line: 115, column: 7, scope: !998)
!1005 = distinct !DISubprogram(name: "_ZSt12__relocate_aIPiS0_SaIiEET0_T_S3_S2_RT1_", linkageName: "_ZSt12__relocate_aIPiS0_SaIiEET0_T_S3_S2_RT1_", scope: null, file: !299, line: 958, type: !5, scopeLine: 958, spFlags: DISPFlagDefinition | DISPFlagOptimized, unit: !0, retainedNodes: !6)
!1006 = !DILocation(line: 964, column: 14, scope: !1007)
!1007 = !DILexicalBlockFile(scope: !1005, file: !299, discriminator: 0)
!1008 = !DILocation(line: 967, column: 5, scope: !1007)
!1009 = distinct !DISubprogram(name: "_ZSt18uninitialized_copyISt13move_iteratorIPiES1_ET0_T_S4_S3_", linkageName: "_ZSt18uninitialized_copyISt13move_iteratorIPiES1_ET0_T_S4_S3_", scope: null, file: !299, line: 115, type: !5, scopeLine: 115, spFlags: DISPFlagDefinition | DISPFlagOptimized, unit: !0, retainedNodes: !6)
!1010 = !DILocation(line: 115, column: 48, scope: !1011)
!1011 = !DILexicalBlockFile(scope: !1009, file: !299, discriminator: 0)
!1012 = !DILocation(line: 115, column: 24, scope: !1011)
!1013 = !DILocation(line: 140, column: 16, scope: !1011)
!1014 = !DILocation(line: 140, column: 25, scope: !1011)
!1015 = !DILocation(line: 137, column: 14, scope: !1011)
!1016 = !DILocation(line: 141, column: 5, scope: !1011)
!1017 = distinct !DISubprogram(name: "_ZNSt12_Destroy_auxILb1EE9__destroyIPiEEvT_S3_", linkageName: "_ZNSt12_Destroy_auxILb1EE9__destroyIPiEEvT_S3_", scope: null, file: !528, line: 117, type: !5, scopeLine: 117, spFlags: DISPFlagDefinition | DISPFlagOptimized, unit: !0, retainedNodes: !6)
!1018 = !DILocation(line: 117, column: 57, scope: !1019)
!1019 = !DILexicalBlockFile(scope: !1017, file: !528, discriminator: 0)
!1020 = distinct !DISubprogram(name: "_ZN9__gnu_cxx13new_allocatorIiE10deallocateEPim", linkageName: "_ZN9__gnu_cxx13new_allocatorIiE10deallocateEPim", scope: null, file: !671, line: 119, type: !5, scopeLine: 119, spFlags: DISPFlagDefinition | DISPFlagOptimized, unit: !0, retainedNodes: !6)
!1021 = !DILocation(line: 128, column: 20, scope: !1022)
!1022 = !DILexicalBlockFile(scope: !1020, file: !671, discriminator: 0)
!1023 = !DILocation(line: 128, column: 2, scope: !1022)
!1024 = !DILocation(line: 129, column: 7, scope: !1022)
!1025 = distinct !DISubprogram(name: "_ZN9__gnu_cxx13new_allocatorImEC1Ev", linkageName: "_ZN9__gnu_cxx13new_allocatorImEC1Ev", scope: null, file: !671, line: 80, type: !5, scopeLine: 80, spFlags: DISPFlagDefinition | DISPFlagOptimized, unit: !0, retainedNodes: !6)
!1026 = !DILocation(line: 80, column: 47, scope: !1027)
!1027 = !DILexicalBlockFile(scope: !1025, file: !671, discriminator: 0)
!1028 = distinct !DISubprogram(name: "_ZNK9__gnu_cxx13new_allocatorImE8max_sizeEv", linkageName: "_ZNK9__gnu_cxx13new_allocatorImE8max_sizeEv", scope: null, file: !671, line: 132, type: !5, scopeLine: 132, spFlags: DISPFlagDefinition | DISPFlagOptimized, unit: !0, retainedNodes: !6)
!1029 = !DILocation(line: 139, column: 7, scope: !1030)
!1030 = !DILexicalBlockFile(scope: !1028, file: !671, discriminator: 0)
!1031 = distinct !DISubprogram(name: "_ZSt14__relocate_a_1ImmENSt9enable_ifIXsr3std24__is_bitwise_relocatableIT_EE5valueEPS1_E4typeES2_S2_S2_RSaIT0_E", linkageName: "_ZSt14__relocate_a_1ImmENSt9enable_ifIXsr3std24__is_bitwise_relocatableIT_EE5valueEPS1_E4typeES2_S2_S2_RSaIT0_E", scope: null, file: !299, line: 924, type: !5, scopeLine: 924, spFlags: DISPFlagDefinition | DISPFlagOptimized, unit: !0, retainedNodes: !6)
!1032 = !DILocation(line: 927, column: 34, scope: !1033)
!1033 = !DILexicalBlockFile(scope: !1031, file: !299, discriminator: 0)
!1034 = !DILocation(line: 928, column: 19, scope: !1033)
!1035 = !DILocation(line: 928, column: 7, scope: !1033)
!1036 = !DILocation(line: 929, column: 20, scope: !1033)
!1037 = !DILocation(line: 929, column: 30, scope: !1033)
!1038 = !DILocation(line: 929, column: 47, scope: !1033)
!1039 = !DILocation(line: 929, column: 2, scope: !1033)
!1040 = !DILocation(line: 930, column: 23, scope: !1033)
!1041 = !DILocation(line: 931, column: 5, scope: !1033)
!1042 = distinct !DISubprogram(name: "_ZSt12__niter_baseIPmET_S1_", linkageName: "_ZSt12__niter_baseIPmET_S1_", scope: null, file: !656, line: 280, type: !5, scopeLine: 280, spFlags: DISPFlagDefinition | DISPFlagOptimized, unit: !0, retainedNodes: !6)
!1043 = !DILocation(line: 282, column: 20, scope: !1044)
!1044 = !DILexicalBlockFile(scope: !1042, file: !656, discriminator: 0)
!1045 = distinct !DISubprogram(name: "_ZNSt20__uninitialized_copyILb1EE13__uninit_copyISt13move_iteratorIPmES3_EET0_T_S6_S5_", linkageName: "_ZNSt20__uninitialized_copyILb1EE13__uninit_copyISt13move_iteratorIPmES3_EET0_T_S6_S5_", scope: null, file: !299, line: 99, type: !5, scopeLine: 99, spFlags: DISPFlagDefinition | DISPFlagOptimized, unit: !0, retainedNodes: !6)
!1046 = !DILocation(line: 99, column: 47, scope: !1047)
!1047 = !DILexicalBlockFile(scope: !1045, file: !299, discriminator: 0)
!1048 = !DILocation(line: 99, column: 23, scope: !1047)
!1049 = !DILocation(line: 101, column: 28, scope: !1047)
!1050 = !DILocation(line: 101, column: 37, scope: !1047)
!1051 = !DILocation(line: 101, column: 18, scope: !1047)
!1052 = !DILocation(line: 101, column: 56, scope: !1047)
!1053 = distinct !DISubprogram(name: "_ZNSt16allocator_traitsISaIiEE8max_sizeERKS0_", linkageName: "_ZNSt16allocator_traitsISaIiEE8max_sizeERKS0_", scope: null, file: !388, line: 504, type: !5, scopeLine: 504, spFlags: DISPFlagDefinition | DISPFlagOptimized, unit: !0, retainedNodes: !6)
!1054 = !DILocation(line: 505, column: 32, scope: !1055)
!1055 = !DILexicalBlockFile(scope: !1053, file: !388, discriminator: 0)
!1056 = distinct !DISubprogram(name: "_ZNK9__gnu_cxx13new_allocatorIiE8max_sizeEv", linkageName: "_ZNK9__gnu_cxx13new_allocatorIiE8max_sizeEv", scope: null, file: !671, line: 132, type: !5, scopeLine: 132, spFlags: DISPFlagDefinition | DISPFlagOptimized, unit: !0, retainedNodes: !6)
!1057 = !DILocation(line: 139, column: 7, scope: !1058)
!1058 = !DILexicalBlockFile(scope: !1056, file: !671, discriminator: 0)
!1059 = distinct !DISubprogram(name: "_ZSt14__relocate_a_1IiiENSt9enable_ifIXsr3std24__is_bitwise_relocatableIT_EE5valueEPS1_E4typeES2_S2_S2_RSaIT0_E", linkageName: "_ZSt14__relocate_a_1IiiENSt9enable_ifIXsr3std24__is_bitwise_relocatableIT_EE5valueEPS1_E4typeES2_S2_S2_RSaIT0_E", scope: null, file: !299, line: 924, type: !5, scopeLine: 924, spFlags: DISPFlagDefinition | DISPFlagOptimized, unit: !0, retainedNodes: !6)
!1060 = !DILocation(line: 927, column: 34, scope: !1061)
!1061 = !DILexicalBlockFile(scope: !1059, file: !299, discriminator: 0)
!1062 = !DILocation(line: 928, column: 19, scope: !1061)
!1063 = !DILocation(line: 928, column: 7, scope: !1061)
!1064 = !DILocation(line: 929, column: 20, scope: !1061)
!1065 = !DILocation(line: 929, column: 30, scope: !1061)
!1066 = !DILocation(line: 929, column: 47, scope: !1061)
!1067 = !DILocation(line: 929, column: 2, scope: !1061)
!1068 = !DILocation(line: 930, column: 23, scope: !1061)
!1069 = !DILocation(line: 931, column: 5, scope: !1061)
!1070 = distinct !DISubprogram(name: "_ZSt12__niter_baseIPiET_S1_", linkageName: "_ZSt12__niter_baseIPiET_S1_", scope: null, file: !656, line: 280, type: !5, scopeLine: 280, spFlags: DISPFlagDefinition | DISPFlagOptimized, unit: !0, retainedNodes: !6)
!1071 = !DILocation(line: 282, column: 20, scope: !1072)
!1072 = !DILexicalBlockFile(scope: !1070, file: !656, discriminator: 0)
!1073 = distinct !DISubprogram(name: "_ZNSt20__uninitialized_copyILb1EE13__uninit_copyISt13move_iteratorIPiES3_EET0_T_S6_S5_", linkageName: "_ZNSt20__uninitialized_copyILb1EE13__uninit_copyISt13move_iteratorIPiES3_EET0_T_S6_S5_", scope: null, file: !299, line: 99, type: !5, scopeLine: 99, spFlags: DISPFlagDefinition | DISPFlagOptimized, unit: !0, retainedNodes: !6)
!1074 = !DILocation(line: 99, column: 47, scope: !1075)
!1075 = !DILexicalBlockFile(scope: !1073, file: !299, discriminator: 0)
!1076 = !DILocation(line: 99, column: 23, scope: !1075)
!1077 = !DILocation(line: 101, column: 28, scope: !1075)
!1078 = !DILocation(line: 101, column: 37, scope: !1075)
!1079 = !DILocation(line: 101, column: 18, scope: !1075)
!1080 = !DILocation(line: 101, column: 56, scope: !1075)
!1081 = distinct !DISubprogram(name: "_ZSt4copyISt13move_iteratorIPmES1_ET0_T_S4_S3_", linkageName: "_ZSt4copyISt13move_iteratorIPmES1_ET0_T_S4_S3_", scope: null, file: !656, line: 465, type: !5, scopeLine: 465, spFlags: DISPFlagDefinition | DISPFlagOptimized, unit: !0, retainedNodes: !6)
!1082 = !DILocation(line: 465, column: 23, scope: !1083)
!1083 = !DILexicalBlockFile(scope: !1081, file: !656, discriminator: 0)
!1084 = !DILocation(line: 465, column: 10, scope: !1083)
!1085 = !DILocation(line: 474, column: 26, scope: !1083)
!1086 = !DILocation(line: 474, column: 8, scope: !1083)
!1087 = !DILocation(line: 474, column: 54, scope: !1083)
!1088 = !DILocation(line: 474, column: 36, scope: !1083)
!1089 = !DILocation(line: 473, column: 14, scope: !1083)
!1090 = !DILocation(line: 475, column: 5, scope: !1083)
!1091 = distinct !DISubprogram(name: "_ZSt4copyISt13move_iteratorIPiES1_ET0_T_S4_S3_", linkageName: "_ZSt4copyISt13move_iteratorIPiES1_ET0_T_S4_S3_", scope: null, file: !656, line: 465, type: !5, scopeLine: 465, spFlags: DISPFlagDefinition | DISPFlagOptimized, unit: !0, retainedNodes: !6)
!1092 = !DILocation(line: 465, column: 23, scope: !1093)
!1093 = !DILexicalBlockFile(scope: !1091, file: !656, discriminator: 0)
!1094 = !DILocation(line: 465, column: 10, scope: !1093)
!1095 = !DILocation(line: 474, column: 26, scope: !1093)
!1096 = !DILocation(line: 474, column: 8, scope: !1093)
!1097 = !DILocation(line: 474, column: 54, scope: !1093)
!1098 = !DILocation(line: 474, column: 36, scope: !1093)
!1099 = !DILocation(line: 473, column: 14, scope: !1093)
!1100 = !DILocation(line: 475, column: 5, scope: !1093)
!1101 = distinct !DISubprogram(name: "_ZSt14__copy_move_a2ILb1EPmS0_ET1_T0_S2_S1_", linkageName: "_ZSt14__copy_move_a2ILb1EPmS0_ET1_T0_S2_S1_", scope: null, file: !656, line: 438, type: !5, scopeLine: 438, spFlags: DISPFlagDefinition | DISPFlagOptimized, unit: !0, retainedNodes: !6)
!1102 = !DILocation(line: 403, column: 14, scope: !1103, inlinedAt: !1104)
!1103 = !DILexicalBlockFile(scope: !1101, file: !656, discriminator: 0)
!1104 = !DILocation(line: 441, column: 3, scope: !1103)
!1105 = !DILocation(line: 444, column: 5, scope: !1103)
!1106 = distinct !DISubprogram(name: "_ZSt12__miter_baseIPmEDTcl12__miter_basecldtfp_4baseEEESt13move_iteratorIT_E", linkageName: "_ZSt12__miter_baseIPmEDTcl12__miter_basecldtfp_4baseEEESt13move_iteratorIT_E", scope: null, file: !188, line: 1259, type: !5, scopeLine: 1259, spFlags: DISPFlagDefinition | DISPFlagOptimized, unit: !0, retainedNodes: !6)
!1107 = !DILocation(line: 1259, column: 18, scope: !1108)
!1108 = !DILexicalBlockFile(scope: !1106, file: !188, discriminator: 0)
!1109 = !DILocation(line: 1261, column: 32, scope: !1108)
!1110 = !DILocation(line: 1261, column: 41, scope: !1108)
!1111 = distinct !DISubprogram(name: "_ZSt14__copy_move_a2ILb1EPiS0_ET1_T0_S2_S1_", linkageName: "_ZSt14__copy_move_a2ILb1EPiS0_ET1_T0_S2_S1_", scope: null, file: !656, line: 438, type: !5, scopeLine: 438, spFlags: DISPFlagDefinition | DISPFlagOptimized, unit: !0, retainedNodes: !6)
!1112 = !DILocation(line: 403, column: 14, scope: !1113, inlinedAt: !1114)
!1113 = !DILexicalBlockFile(scope: !1111, file: !656, discriminator: 0)
!1114 = !DILocation(line: 441, column: 3, scope: !1113)
!1115 = !DILocation(line: 444, column: 5, scope: !1113)
!1116 = distinct !DISubprogram(name: "_ZSt12__miter_baseIPiEDTcl12__miter_basecldtfp_4baseEEESt13move_iteratorIT_E", linkageName: "_ZSt12__miter_baseIPiEDTcl12__miter_basecldtfp_4baseEEESt13move_iteratorIT_E", scope: null, file: !188, line: 1259, type: !5, scopeLine: 1259, spFlags: DISPFlagDefinition | DISPFlagOptimized, unit: !0, retainedNodes: !6)
!1117 = !DILocation(line: 1259, column: 18, scope: !1118)
!1118 = !DILexicalBlockFile(scope: !1116, file: !188, discriminator: 0)
!1119 = !DILocation(line: 1261, column: 32, scope: !1118)
!1120 = !DILocation(line: 1261, column: 41, scope: !1118)
!1121 = distinct !DISubprogram(name: "_ZSt12__niter_wrapIPmET_RKS1_S1_", linkageName: "_ZSt12__niter_wrapIPmET_RKS1_S1_", scope: null, file: !656, line: 295, type: !5, scopeLine: 295, spFlags: DISPFlagDefinition | DISPFlagOptimized, unit: !0, retainedNodes: !6)
!1122 = !DILocation(line: 296, column: 21, scope: !1123)
!1123 = !DILexicalBlockFile(scope: !1121, file: !656, discriminator: 0)
!1124 = distinct !DISubprogram(name: "_ZSt13__copy_move_aILb1EPmS0_ET1_T0_S2_S1_", linkageName: "_ZSt13__copy_move_aILb1EPmS0_ET1_T0_S2_S1_", scope: null, file: !656, line: 393, type: !5, scopeLine: 393, spFlags: DISPFlagDefinition | DISPFlagOptimized, unit: !0, retainedNodes: !6)
!1125 = !DILocation(line: 403, column: 14, scope: !1126)
!1126 = !DILexicalBlockFile(scope: !1124, file: !656, discriminator: 0)
!1127 = !DILocation(line: 405, column: 5, scope: !1126)
!1128 = distinct !DISubprogram(name: "_ZSt12__miter_baseIPmET_S1_", linkageName: "_ZSt12__miter_baseIPmET_S1_", scope: null, file: !1129, line: 428, type: !5, scopeLine: 428, spFlags: DISPFlagDefinition | DISPFlagOptimized, unit: !0, retainedNodes: !6)
!1129 = !DIFile(filename: "/../lib/gcc/x86_64-linux-gnu/9/../../../../include/c++/9/bits/cpp_type_traits.h", directory: "")
!1130 = !DILocation(line: 429, column: 20, scope: !1131)
!1131 = !DILexicalBlockFile(scope: !1128, file: !1129, discriminator: 0)
!1132 = distinct !DISubprogram(name: "_ZNKSt13move_iteratorIPmE4baseEv", linkageName: "_ZNKSt13move_iteratorIPmE4baseEv", scope: null, file: !188, line: 1063, type: !5, scopeLine: 1063, spFlags: DISPFlagDefinition | DISPFlagOptimized, unit: !0, retainedNodes: !6)
!1133 = !DILocation(line: 1064, column: 16, scope: !1134)
!1134 = !DILexicalBlockFile(scope: !1132, file: !188, discriminator: 0)
!1135 = !DILocation(line: 1064, column: 28, scope: !1134)
!1136 = distinct !DISubprogram(name: "_ZSt12__niter_wrapIPiET_RKS1_S1_", linkageName: "_ZSt12__niter_wrapIPiET_RKS1_S1_", scope: null, file: !656, line: 295, type: !5, scopeLine: 295, spFlags: DISPFlagDefinition | DISPFlagOptimized, unit: !0, retainedNodes: !6)
!1137 = !DILocation(line: 296, column: 21, scope: !1138)
!1138 = !DILexicalBlockFile(scope: !1136, file: !656, discriminator: 0)
