; ModuleID = 'LLVMDialectModule'
source_filename = "LLVMDialectModule"
target datalayout = "e-m:e-p270:32:32-p271:32:32-p272:64:64-i64:64-f80:128-n8:16:32:64-S128"
target triple = "x86_64-unknown-linux-gnu"

%"struct.std::chrono::duration.0" = type { i64 }
%"struct.std::chrono::duration" = type { i64 }
%"struct.std::chrono::time_point" = type { %"struct.std::chrono::duration" }
%"class.std::vector" = type { %"struct.std::_Vector_base" }
%"struct.std::_Vector_base" = type { %"struct.std::_Vector_base<int, std::allocator<int>>::_Vector_impl" }
%"struct.std::_Vector_base<int, std::allocator<int>>::_Vector_impl" = type { %"struct.std::_Vector_base<int, std::allocator<int>>::_Vector_impl_data" }
%"struct.std::_Vector_base<int, std::allocator<int>>::_Vector_impl_data" = type { i32*, i32*, i32* }
%"class.std::move_iterator" = type { i32* }
%"class.std::allocator" = type { i8 }
%"class.__gnu_cxx::__normal_iterator" = type { i32* }
%"struct.std::__is_move_insertable" = type { i8 }
%"class.__gnu_cxx::new_allocator" = type { i8 }
%"struct.std::integral_constant" = type { i8 }

@str6 = internal constant [26 x i8] c"vector::_M_realloc_insert\00"
@str5 = internal constant [16 x i8] c"vector::reserve\00"
@str4 = internal constant [56 x i8] c"Number of unique vendor_ids in the train dataset: %ld\0A\0A\00"
@str3 = internal constant [9 x i8] c"VendorID\00"
@str2 = internal constant [48 x i8] c"number of vendor_ids in the train dataset: %ld\0A\00"
@str1 = internal constant [38 x i8] c"print_number_vendor_ids_and_unique()\0A\00"
@str0 = internal constant [16 x i8] c"Step 1: %ld us\0A\00"

; Function Attrs: inaccessiblememonly mustprogress nofree nounwind willreturn
declare noalias noundef i8* @malloc(i64) #0

declare void @free(i8*) #1

declare i32 @printf(i8*, ...) #1

define i32 @main() #1 !dbg !3 {
  %1 = alloca %"struct.std::chrono::duration.0", i64 1, align 8
  %2 = alloca %"struct.std::chrono::duration", i64 1, align 8
  %3 = alloca %"struct.std::chrono::time_point", i64 1, align 8
  %4 = alloca %"struct.std::chrono::time_point", i64 1, align 8
  %5 = alloca [10 x %"struct.std::chrono::time_point"], i64 1, align 8, !dbg !7
  %6 = getelementptr [10 x %"struct.std::chrono::time_point"], [10 x %"struct.std::chrono::time_point"]* %5, i32 0, i32 0, !dbg !9
  br label %7, !dbg !9

7:                                                ; preds = %10, %0
  %8 = phi i64 [ 0, %0 ], [ %12, %10 ]
  %9 = icmp slt i64 %8, 10, !dbg !9
  br i1 %9, label %10, label %13, !dbg !9

10:                                               ; preds = %7
  %11 = getelementptr %"struct.std::chrono::time_point", %"struct.std::chrono::time_point"* %6, i64 %8, !dbg !9
  call void @_ZNSt6chrono10time_pointINS_3_V212steady_clockENS_8durationIlSt5ratioILl1ELl1000000000EEEEEC1Ev(%"struct.std::chrono::time_point"* %11), !dbg !9
  %12 = add i64 %8, 1, !dbg !9
  br label %7, !dbg !9

13:                                               ; preds = %7
  %14 = call i8* @_Z9load_datav(), !dbg !10
  %15 = call %"struct.std::chrono::time_point" @_ZNSt6chrono3_V212steady_clock3nowEv(), !dbg !11
  store %"struct.std::chrono::time_point" %15, %"struct.std::chrono::time_point"* %4, align 8, !dbg !11
  %16 = call %"struct.std::chrono::time_point"* @_ZNSt6chrono10time_pointINS_3_V212steady_clockENS_8durationIlSt5ratioILl1ELl1000000000EEEEEaSEOS7_(%"struct.std::chrono::time_point"* %6, %"struct.std::chrono::time_point"* %4), !dbg !12
  call void @_Z34print_number_vendor_ids_and_uniquev(), !dbg !13
  %17 = getelementptr %"struct.std::chrono::time_point", %"struct.std::chrono::time_point"* %6, i32 1, !dbg !14
  %18 = call %"struct.std::chrono::time_point" @_ZNSt6chrono3_V212steady_clock3nowEv(), !dbg !15
  store %"struct.std::chrono::time_point" %18, %"struct.std::chrono::time_point"* %3, align 8, !dbg !15
  %19 = call %"struct.std::chrono::time_point"* @_ZNSt6chrono10time_pointINS_3_V212steady_clockENS_8durationIlSt5ratioILl1ELl1000000000EEEEEaSEOS7_(%"struct.std::chrono::time_point"* %17, %"struct.std::chrono::time_point"* %3), !dbg !16
  %20 = call %"struct.std::chrono::duration" @_ZNSt6chronomiINS_3_V212steady_clockENS_8durationIlSt5ratioILl1ELl1000000000EEEES6_EENSt11common_typeIJT0_T1_EE4typeERKNS_10time_pointIT_S8_EERKNSC_ISD_S9_EE(%"struct.std::chrono::time_point"* %17, %"struct.std::chrono::time_point"* %6), !dbg !17
  store %"struct.std::chrono::duration" %20, %"struct.std::chrono::duration"* %2, align 8, !dbg !18
  %21 = call %"struct.std::chrono::duration.0" @_ZNSt6chrono13duration_castINS_8durationIlSt5ratioILl1ELl1000000EEEElS2_ILl1ELl1000000000EEEENSt9enable_ifIXsr13__is_durationIT_EE5valueES7_E4typeERKNS1_IT0_T1_EE(%"struct.std::chrono::duration"* %2), !dbg !19
  store %"struct.std::chrono::duration.0" %21, %"struct.std::chrono::duration.0"* %1, align 8, !dbg !19
  %22 = call i64 @_ZNKSt6chrono8durationIlSt5ratioILl1ELl1000000EEE5countEv(%"struct.std::chrono::duration.0"* %1), !dbg !20
  %23 = call i32 (i8*, ...) @printf(i8* getelementptr inbounds ([16 x i8], [16 x i8]* @str0, i32 0, i32 0), i64 %22), !dbg !21
  ret i32 undef, !dbg !22
}

define linkonce_odr void @_ZNSt6chrono10time_pointINS_3_V212steady_clockENS_8durationIlSt5ratioILl1ELl1000000000EEEEEC1Ev(%"struct.std::chrono::time_point"* %0) #1 !dbg !23 {
  %2 = alloca %"struct.std::chrono::duration", i64 1, align 8
  %3 = alloca %"struct.std::chrono::duration", i64 1, align 8
  %4 = call %"struct.std::chrono::duration" @_ZNSt6chrono8durationIlSt5ratioILl1ELl1000000000EEE4zeroEv(), !dbg !25
  store %"struct.std::chrono::duration" %4, %"struct.std::chrono::duration"* %2, align 8, !dbg !25
  call void @_ZNSt6chrono8durationIlSt5ratioILl1ELl1000000000EEEC1ERKS3_(%"struct.std::chrono::duration"* %3, %"struct.std::chrono::duration"* %2), !dbg !27
  %5 = getelementptr %"struct.std::chrono::time_point", %"struct.std::chrono::time_point"* %0, i32 0, i32 0, !dbg !28
  %6 = load %"struct.std::chrono::duration", %"struct.std::chrono::duration"* %3, align 8, !dbg !28
  store %"struct.std::chrono::duration" %6, %"struct.std::chrono::duration"* %5, align 8, !dbg !28
  ret void, !dbg !29
}

declare i8* @_Z9load_datav() #1

define linkonce_odr %"struct.std::chrono::time_point"* @_ZNSt6chrono10time_pointINS_3_V212steady_clockENS_8durationIlSt5ratioILl1ELl1000000000EEEEEaSEOS7_(%"struct.std::chrono::time_point"* %0, %"struct.std::chrono::time_point"* %1) #1 !dbg !30 {
  %3 = getelementptr %"struct.std::chrono::time_point", %"struct.std::chrono::time_point"* %0, i32 0, i32 0, !dbg !31
  %4 = getelementptr %"struct.std::chrono::time_point", %"struct.std::chrono::time_point"* %1, i32 0, i32 0, !dbg !31
  %5 = call %"struct.std::chrono::duration"* @_ZNSt6chrono8durationIlSt5ratioILl1ELl1000000000EEEaSERKS3_(%"struct.std::chrono::duration"* %3, %"struct.std::chrono::duration"* %4), !dbg !31
  ret %"struct.std::chrono::time_point"* %0, !dbg !31
}

declare %"struct.std::chrono::time_point" @_ZNSt6chrono3_V212steady_clock3nowEv() #1

define void @_Z34print_number_vendor_ids_and_uniquev() #1 !dbg !33 {
  %1 = call i32 (i8*, ...) @printf(i8* getelementptr inbounds ([38 x i8], [38 x i8]* @str1, i32 0, i32 0)), !dbg !34
  %2 = call %"class.std::vector"* @_Z10get_columnIiERSt6vectorIT_SaIS1_EEPKc(i8* getelementptr inbounds ([9 x i8], [9 x i8]* @str3, i32 0, i32 0)), !dbg !36
  %3 = call i64 @_ZNKSt6vectorIiSaIiEE4sizeEv(%"class.std::vector"* %2), !dbg !37
  %4 = call i32 (i8*, ...) @printf(i8* getelementptr inbounds ([48 x i8], [48 x i8]* @str2, i32 0, i32 0), i64 %3), !dbg !38
  %5 = call %"class.std::vector"* @_Z10get_columnIiERSt6vectorIT_SaIS1_EEPKc(i8* getelementptr inbounds ([9 x i8], [9 x i8]* @str3, i32 0, i32 0)), !dbg !39
  %6 = call i64 @_Z21get_col_unique_valuesIiEmRKSt6vectorIT_SaIS1_EE(%"class.std::vector"* %5), !dbg !40
  %7 = call i32 (i8*, ...) @printf(i8* getelementptr inbounds ([56 x i8], [56 x i8]* @str4, i32 0, i32 0), i64 %6), !dbg !41
  ret void, !dbg !42
}

define linkonce_odr i64 @_ZNKSt6chrono8durationIlSt5ratioILl1ELl1000000EEE5countEv(%"struct.std::chrono::duration.0"* %0) #1 !dbg !43 {
  %2 = getelementptr %"struct.std::chrono::duration.0", %"struct.std::chrono::duration.0"* %0, i32 0, i32 0, !dbg !44
  %3 = load i64, i64* %2, align 8, !dbg !44
  ret i64 %3, !dbg !46
}

define linkonce_odr %"struct.std::chrono::duration.0" @_ZNSt6chrono13duration_castINS_8durationIlSt5ratioILl1ELl1000000EEEElS2_ILl1ELl1000000000EEEENSt9enable_ifIXsr13__is_durationIT_EE5valueES7_E4typeERKNS1_IT0_T1_EE(%"struct.std::chrono::duration"* %0) #1 !dbg !47 {
  %2 = alloca %"struct.std::chrono::duration.0", i64 1, align 8
  %3 = alloca %"struct.std::chrono::duration.0", i64 1, align 8
  %4 = call %"struct.std::chrono::duration.0" @_ZNSt6chrono20__duration_cast_implINS_8durationIlSt5ratioILl1ELl1000000EEEES2_ILl1ELl1000EElLb1ELb0EE6__castIlS2_ILl1ELl1000000000EEEES4_RKNS1_IT_T0_EE(%"struct.std::chrono::duration"* %0), !dbg !48
  store %"struct.std::chrono::duration.0" %4, %"struct.std::chrono::duration.0"* %2, align 8, !dbg !48
  call void @_ZNSt6chrono8durationIlSt5ratioILl1ELl1000000EEEC1ERKS3_(%"struct.std::chrono::duration.0"* %3, %"struct.std::chrono::duration.0"* %2), !dbg !48
  %5 = load %"struct.std::chrono::duration.0", %"struct.std::chrono::duration.0"* %3, align 8, !dbg !50
  ret %"struct.std::chrono::duration.0" %5, !dbg !51
}

define linkonce_odr %"struct.std::chrono::duration" @_ZNSt6chronomiINS_3_V212steady_clockENS_8durationIlSt5ratioILl1ELl1000000000EEEES6_EENSt11common_typeIJT0_T1_EE4typeERKNS_10time_pointIT_S8_EERKNSC_ISD_S9_EE(%"struct.std::chrono::time_point"* %0, %"struct.std::chrono::time_point"* %1) #1 !dbg !52 {
  %3 = alloca %"struct.std::chrono::duration", i64 1, align 8
  %4 = alloca %"struct.std::chrono::duration", i64 1, align 8
  %5 = alloca %"struct.std::chrono::duration", i64 1, align 8
  %6 = alloca %"struct.std::chrono::duration", i64 1, align 8
  %7 = call %"struct.std::chrono::duration" @_ZNKSt6chrono10time_pointINS_3_V212steady_clockENS_8durationIlSt5ratioILl1ELl1000000000EEEEE16time_since_epochEv(%"struct.std::chrono::time_point"* %0), !dbg !53
  store %"struct.std::chrono::duration" %7, %"struct.std::chrono::duration"* %5, align 8, !dbg !55
  %8 = call %"struct.std::chrono::duration" @_ZNKSt6chrono10time_pointINS_3_V212steady_clockENS_8durationIlSt5ratioILl1ELl1000000000EEEEE16time_since_epochEv(%"struct.std::chrono::time_point"* %1), !dbg !56
  store %"struct.std::chrono::duration" %8, %"struct.std::chrono::duration"* %4, align 8, !dbg !57
  %9 = call %"struct.std::chrono::duration" @_ZNSt6chronomiIlSt5ratioILl1ELl1000000000EElS2_EENSt11common_typeIJNS_8durationIT_T0_EENS4_IT1_T2_EEEE4typeERKS7_RKSA_(%"struct.std::chrono::duration"* %5, %"struct.std::chrono::duration"* %4), !dbg !58
  store %"struct.std::chrono::duration" %9, %"struct.std::chrono::duration"* %3, align 8, !dbg !55
  call void @_ZNSt6chrono8durationIlSt5ratioILl1ELl1000000000EEEC1ERKS3_(%"struct.std::chrono::duration"* %6, %"struct.std::chrono::duration"* %3), !dbg !55
  %10 = load %"struct.std::chrono::duration", %"struct.std::chrono::duration"* %6, align 8, !dbg !59
  ret %"struct.std::chrono::duration" %10, !dbg !60
}

define linkonce_odr void @_ZNSt6chrono8durationIlSt5ratioILl1ELl1000000000EEEC1ERKS3_(%"struct.std::chrono::duration"* %0, %"struct.std::chrono::duration"* %1) #1 !dbg !61 {
  %3 = getelementptr %"struct.std::chrono::duration", %"struct.std::chrono::duration"* %1, i32 0, i32 0, !dbg !62
  %4 = load i64, i64* %3, align 8, !dbg !62
  %5 = getelementptr %"struct.std::chrono::duration", %"struct.std::chrono::duration"* %0, i32 0, i32 0, !dbg !62
  store i64 %4, i64* %5, align 8, !dbg !62
  ret void, !dbg !64
}

define linkonce_odr %"struct.std::chrono::duration" @_ZNSt6chrono8durationIlSt5ratioILl1ELl1000000000EEE4zeroEv() #1 !dbg !65 {
  %1 = alloca %"struct.std::chrono::duration", i64 1, align 8
  %2 = alloca i64, i64 1, align 8
  store i64 undef, i64* %2, align 8
  %3 = alloca %"struct.std::chrono::duration", i64 1, align 8
  %4 = alloca %"struct.std::chrono::duration", i64 1, align 8
  store i64 0, i64* %2, align 8, !dbg !66
  call void @_ZNSt6chrono8durationIlSt5ratioILl1ELl1000000000EEEC1IlvEERKT_(%"struct.std::chrono::duration"* %3, i64* %2), !dbg !68
  %5 = load %"struct.std::chrono::duration", %"struct.std::chrono::duration"* %3, align 8, !dbg !68
  store %"struct.std::chrono::duration" %5, %"struct.std::chrono::duration"* %1, align 8, !dbg !68
  call void @_ZNSt6chrono8durationIlSt5ratioILl1ELl1000000000EEEC1ERKS3_(%"struct.std::chrono::duration"* %4, %"struct.std::chrono::duration"* %1), !dbg !68
  %6 = load %"struct.std::chrono::duration", %"struct.std::chrono::duration"* %4, align 8, !dbg !69
  ret %"struct.std::chrono::duration" %6, !dbg !70
}

define linkonce_odr %"struct.std::chrono::duration"* @_ZNSt6chrono8durationIlSt5ratioILl1ELl1000000000EEEaSERKS3_(%"struct.std::chrono::duration"* %0, %"struct.std::chrono::duration"* %1) #1 !dbg !71 {
  %3 = getelementptr %"struct.std::chrono::duration", %"struct.std::chrono::duration"* %0, i32 0, i32 0, !dbg !72
  %4 = getelementptr %"struct.std::chrono::duration", %"struct.std::chrono::duration"* %1, i32 0, i32 0, !dbg !72
  %5 = load i64, i64* %4, align 8, !dbg !72
  store i64 %5, i64* %3, align 8, !dbg !72
  ret %"struct.std::chrono::duration"* %0, !dbg !72
}

define linkonce_odr i64 @_ZNKSt6vectorIiSaIiEE4sizeEv(%"class.std::vector"* %0) #1 !dbg !74 {
  %2 = getelementptr %"class.std::vector", %"class.std::vector"* %0, i32 0, i32 0, !dbg !76
  %3 = getelementptr %"struct.std::_Vector_base", %"struct.std::_Vector_base"* %2, i32 0, i32 0, !dbg !78
  %4 = getelementptr %"struct.std::_Vector_base<int, std::allocator<int>>::_Vector_impl", %"struct.std::_Vector_base<int, std::allocator<int>>::_Vector_impl"* %3, i32 0, i32 0, !dbg !76
  %5 = getelementptr %"struct.std::_Vector_base<int, std::allocator<int>>::_Vector_impl_data", %"struct.std::_Vector_base<int, std::allocator<int>>::_Vector_impl_data"* %4, i32 0, i32 1, !dbg !79
  %6 = load i32*, i32** %5, align 8, !dbg !76
  %7 = getelementptr %"struct.std::_Vector_base<int, std::allocator<int>>::_Vector_impl_data", %"struct.std::_Vector_base<int, std::allocator<int>>::_Vector_impl_data"* %4, i32 0, i32 0, !dbg !80
  %8 = load i32*, i32** %7, align 8, !dbg !81
  %9 = ptrtoint i32* %8 to i64, !dbg !82
  %10 = ptrtoint i32* %6 to i64, !dbg !82
  %11 = sub i64 %10, %9, !dbg !82
  %12 = sdiv i64 %11, 4, !dbg !82
  ret i64 %12, !dbg !83
}

declare %"class.std::vector"* @_Z10get_columnIiERSt6vectorIT_SaIS1_EEPKc(i8*) #1

define linkonce_odr i64 @_Z21get_col_unique_valuesIiEmRKSt6vectorIT_SaIS1_EE(%"class.std::vector"* %0) #1 !dbg !84 {
  %2 = alloca i32, i64 1, align 4, !dbg !85
  store i32 undef, i32* %2, align 4, !dbg !85
  %3 = alloca %"class.std::vector", i64 1, align 8, !dbg !87
  %4 = call i64 @_ZNKSt6vectorIiSaIiEE4sizeEv(%"class.std::vector"* %0), !dbg !88
  call void @_ZNSt6vectorIiSaIiEEC1Ev(%"class.std::vector"* %3), !dbg !89
  call void @_ZNSt6vectorIiSaIiEE7reserveEm(%"class.std::vector"* %3, i64 %4), !dbg !90
  br label %5, !dbg !91

5:                                                ; preds = %14, %1
  %6 = phi i64 [ 0, %1 ], [ %15, %14 ]
  %7 = icmp slt i64 %6, %4, !dbg !91
  br i1 %7, label %8, label %16, !dbg !91

8:                                                ; preds = %5
  %9 = call i32* @_ZNKSt6vectorIiSaIiEEixEm(%"class.std::vector"* %0, i64 %6), !dbg !92
  %10 = load i32, i32* %9, align 4, !dbg !92
  store i32 %10, i32* %2, align 4, !dbg !85
  %11 = call i8 @_Z15step1_firstTimei(i32 %10), !dbg !93
  %12 = icmp ne i8 %11, 0, !dbg !94
  br i1 %12, label %13, label %14, !dbg !94

13:                                               ; preds = %8
  call void @_ZNSt6vectorIiSaIiEE9push_backERKi(%"class.std::vector"* %3, i32* %2), !dbg !95
  br label %14, !dbg !94

14:                                               ; preds = %13, %8
  %15 = add i64 %6, 1, !dbg !91
  br label %5, !dbg !91

16:                                               ; preds = %5
  %17 = call i64 @_ZNKSt6vectorIiSaIiEE4sizeEv(%"class.std::vector"* %3), !dbg !96
  ret i64 %17, !dbg !97
}

define linkonce_odr void @_ZNSt6chrono8durationIlSt5ratioILl1ELl1000000EEEC1ERKS3_(%"struct.std::chrono::duration.0"* %0, %"struct.std::chrono::duration.0"* %1) #1 !dbg !98 {
  %3 = getelementptr %"struct.std::chrono::duration.0", %"struct.std::chrono::duration.0"* %1, i32 0, i32 0, !dbg !99
  %4 = load i64, i64* %3, align 8, !dbg !99
  %5 = getelementptr %"struct.std::chrono::duration.0", %"struct.std::chrono::duration.0"* %0, i32 0, i32 0, !dbg !99
  store i64 %4, i64* %5, align 8, !dbg !99
  ret void, !dbg !101
}

define linkonce_odr %"struct.std::chrono::duration.0" @_ZNSt6chrono20__duration_cast_implINS_8durationIlSt5ratioILl1ELl1000000EEEES2_ILl1ELl1000EElLb1ELb0EE6__castIlS2_ILl1ELl1000000000EEEES4_RKNS1_IT_T0_EE(%"struct.std::chrono::duration"* %0) #1 !dbg !102 {
  %2 = alloca %"struct.std::chrono::duration.0", i64 1, align 8
  %3 = alloca i64, i64 1, align 8
  store i64 undef, i64* %3, align 8
  %4 = alloca %"struct.std::chrono::duration.0", i64 1, align 8
  %5 = alloca %"struct.std::chrono::duration.0", i64 1, align 8
  %6 = call i64 @_ZNKSt6chrono8durationIlSt5ratioILl1ELl1000000000EEE5countEv(%"struct.std::chrono::duration"* %0), !dbg !103
  %7 = sdiv i64 %6, 1000, !dbg !105
  store i64 %7, i64* %3, align 8, !dbg !106
  call void @_ZNSt6chrono8durationIlSt5ratioILl1ELl1000000EEEC1IlvEERKT_(%"struct.std::chrono::duration.0"* %4, i64* %3), !dbg !107
  %8 = load %"struct.std::chrono::duration.0", %"struct.std::chrono::duration.0"* %4, align 8, !dbg !107
  store %"struct.std::chrono::duration.0" %8, %"struct.std::chrono::duration.0"* %2, align 8, !dbg !107
  call void @_ZNSt6chrono8durationIlSt5ratioILl1ELl1000000EEEC1ERKS3_(%"struct.std::chrono::duration.0"* %5, %"struct.std::chrono::duration.0"* %2), !dbg !107
  %9 = load %"struct.std::chrono::duration.0", %"struct.std::chrono::duration.0"* %5, align 8, !dbg !108
  ret %"struct.std::chrono::duration.0" %9, !dbg !109
}

define linkonce_odr %"struct.std::chrono::duration" @_ZNSt6chronomiIlSt5ratioILl1ELl1000000000EElS2_EENSt11common_typeIJNS_8durationIT_T0_EENS4_IT1_T2_EEEE4typeERKS7_RKSA_(%"struct.std::chrono::duration"* %0, %"struct.std::chrono::duration"* %1) #1 !dbg !110 {
  %3 = alloca %"struct.std::chrono::duration", i64 1, align 8
  %4 = alloca i64, i64 1, align 8
  store i64 undef, i64* %4, align 8
  %5 = alloca %"struct.std::chrono::duration", i64 1, align 8
  %6 = alloca %"struct.std::chrono::duration", i64 1, align 8
  %7 = alloca %"struct.std::chrono::duration", i64 1, align 8
  %8 = alloca %"struct.std::chrono::duration", i64 1, align 8
  %9 = alloca %"struct.std::chrono::duration", i64 1, align 8
  %10 = alloca %"struct.std::chrono::duration", i64 1, align 8
  call void @_ZNSt6chrono8durationIlSt5ratioILl1ELl1000000000EEEC1ERKS3_(%"struct.std::chrono::duration"* %8, %"struct.std::chrono::duration"* %0), !dbg !111
  %11 = load %"struct.std::chrono::duration", %"struct.std::chrono::duration"* %8, align 8, !dbg !111
  store %"struct.std::chrono::duration" %11, %"struct.std::chrono::duration"* %7, align 8, !dbg !111
  %12 = call i64 @_ZNKSt6chrono8durationIlSt5ratioILl1ELl1000000000EEE5countEv(%"struct.std::chrono::duration"* %7), !dbg !113
  call void @_ZNSt6chrono8durationIlSt5ratioILl1ELl1000000000EEEC1ERKS3_(%"struct.std::chrono::duration"* %6, %"struct.std::chrono::duration"* %1), !dbg !114
  %13 = load %"struct.std::chrono::duration", %"struct.std::chrono::duration"* %6, align 8, !dbg !114
  store %"struct.std::chrono::duration" %13, %"struct.std::chrono::duration"* %5, align 8, !dbg !114
  %14 = call i64 @_ZNKSt6chrono8durationIlSt5ratioILl1ELl1000000000EEE5countEv(%"struct.std::chrono::duration"* %5), !dbg !115
  %15 = sub i64 %12, %14, !dbg !116
  store i64 %15, i64* %4, align 8, !dbg !111
  call void @_ZNSt6chrono8durationIlSt5ratioILl1ELl1000000000EEEC1IlvEERKT_(%"struct.std::chrono::duration"* %9, i64* %4), !dbg !117
  %16 = load %"struct.std::chrono::duration", %"struct.std::chrono::duration"* %9, align 8, !dbg !117
  store %"struct.std::chrono::duration" %16, %"struct.std::chrono::duration"* %3, align 8, !dbg !117
  call void @_ZNSt6chrono8durationIlSt5ratioILl1ELl1000000000EEEC1ERKS3_(%"struct.std::chrono::duration"* %10, %"struct.std::chrono::duration"* %3), !dbg !117
  %17 = load %"struct.std::chrono::duration", %"struct.std::chrono::duration"* %10, align 8, !dbg !118
  ret %"struct.std::chrono::duration" %17, !dbg !119
}

define linkonce_odr %"struct.std::chrono::duration" @_ZNKSt6chrono10time_pointINS_3_V212steady_clockENS_8durationIlSt5ratioILl1ELl1000000000EEEEE16time_since_epochEv(%"struct.std::chrono::time_point"* %0) #1 !dbg !120 {
  %2 = alloca %"struct.std::chrono::duration", i64 1, align 8
  %3 = getelementptr %"struct.std::chrono::time_point", %"struct.std::chrono::time_point"* %0, i32 0, i32 0, !dbg !121
  call void @_ZNSt6chrono8durationIlSt5ratioILl1ELl1000000000EEEC1ERKS3_(%"struct.std::chrono::duration"* %2, %"struct.std::chrono::duration"* %3), !dbg !121
  %4 = load %"struct.std::chrono::duration", %"struct.std::chrono::duration"* %2, align 8, !dbg !123
  ret %"struct.std::chrono::duration" %4, !dbg !124
}

define linkonce_odr void @_ZNSt6chrono8durationIlSt5ratioILl1ELl1000000000EEEC1IlvEERKT_(%"struct.std::chrono::duration"* %0, i64* %1) #1 !dbg !125 {
  %3 = load i64, i64* %1, align 8, !dbg !126
  %4 = getelementptr %"struct.std::chrono::duration", %"struct.std::chrono::duration"* %0, i32 0, i32 0, !dbg !128
  store i64 %3, i64* %4, align 8, !dbg !128
  ret void, !dbg !129
}

define linkonce_odr i64 @_ZNSt6chrono15duration_valuesIlE4zeroEv() #1 !dbg !130 {
  ret i64 0, !dbg !131
}

define linkonce_odr void @_ZNSt6vectorIiSaIiEEC1Ev(%"class.std::vector"* %0) #1 !dbg !133 {
  %2 = getelementptr %"class.std::vector", %"class.std::vector"* %0, i32 0, i32 0, !dbg !134
  call void @_ZNSt12_Vector_baseIiSaIiEEC1Ev(%"struct.std::_Vector_base"* %2), !dbg !134
  ret void, !dbg !136
}

define linkonce_odr void @_ZNSt6vectorIiSaIiEE7reserveEm(%"class.std::vector"* %0, i64 %1) #1 !dbg !137 {
  %3 = alloca %"class.std::move_iterator", i64 1, align 8
  %4 = alloca %"class.std::move_iterator", i64 1, align 8
  %5 = alloca %"class.std::move_iterator", i64 1, align 8
  %6 = alloca %"class.std::move_iterator", i64 1, align 8
  %7 = call i64 @_ZNKSt6vectorIiSaIiEE8max_sizeEv(%"class.std::vector"* %0), !dbg !138
  %8 = icmp sgt i64 %1, %7, !dbg !141
  br i1 %8, label %9, label %10, !dbg !142

9:                                                ; preds = %2
  call void @_ZSt20__throw_length_errorPKc(i8* getelementptr inbounds ([16 x i8], [16 x i8]* @str5, i32 0, i32 0)), !dbg !143
  br label %10, !dbg !142

10:                                               ; preds = %9, %2
  %11 = call i64 @_ZNKSt6vectorIiSaIiEE8capacityEv(%"class.std::vector"* %0), !dbg !144
  %12 = icmp slt i64 %11, %1, !dbg !145
  br i1 %12, label %13, label %60, !dbg !146

13:                                               ; preds = %10
  %14 = call i64 @_ZNKSt6vectorIiSaIiEE4sizeEv(%"class.std::vector"* %0), !dbg !147
  %15 = call i8 @_ZNSt6vectorIiSaIiEE15_S_use_relocateEv(), !dbg !148
  %16 = icmp ne i8 %15, 0, !dbg !149
  br i1 %16, label %17, label %28, !dbg !149

17:                                               ; preds = %13
  %18 = getelementptr %"class.std::vector", %"class.std::vector"* %0, i32 0, i32 0, !dbg !150
  %19 = call i32* @_ZNSt12_Vector_baseIiSaIiEE11_M_allocateEm(%"struct.std::_Vector_base"* %18, i64 %1), !dbg !151
  %20 = getelementptr %"struct.std::_Vector_base", %"struct.std::_Vector_base"* %18, i32 0, i32 0, !dbg !152
  %21 = getelementptr %"struct.std::_Vector_base<int, std::allocator<int>>::_Vector_impl", %"struct.std::_Vector_base<int, std::allocator<int>>::_Vector_impl"* %20, i32 0, i32 0, !dbg !153
  %22 = getelementptr %"struct.std::_Vector_base<int, std::allocator<int>>::_Vector_impl_data", %"struct.std::_Vector_base<int, std::allocator<int>>::_Vector_impl_data"* %21, i32 0, i32 0, !dbg !154
  %23 = load i32*, i32** %22, align 8, !dbg !153
  %24 = getelementptr %"struct.std::_Vector_base<int, std::allocator<int>>::_Vector_impl_data", %"struct.std::_Vector_base<int, std::allocator<int>>::_Vector_impl_data"* %21, i32 0, i32 1, !dbg !155
  %25 = load i32*, i32** %24, align 8, !dbg !156
  %26 = call %"class.std::allocator"* @_ZNSt12_Vector_baseIiSaIiEE19_M_get_Tp_allocatorEv(%"struct.std::_Vector_base"* %18), !dbg !157
  %27 = call i32* @_ZSt14__relocate_a_1IiiENSt9enable_ifIXsr3std24__is_bitwise_relocatableIT_EE5valueEPS1_E4typeES2_S2_S2_RSaIT0_E(i32* %23, i32* %25, i32* %19, %"class.std::allocator"* %26), !dbg !158
  br label %42, !dbg !149

28:                                               ; preds = %13
  %29 = getelementptr %"class.std::vector", %"class.std::vector"* %0, i32 0, i32 0, !dbg !165
  %30 = getelementptr %"struct.std::_Vector_base", %"struct.std::_Vector_base"* %29, i32 0, i32 0, !dbg !166
  %31 = getelementptr %"struct.std::_Vector_base<int, std::allocator<int>>::_Vector_impl", %"struct.std::_Vector_base<int, std::allocator<int>>::_Vector_impl"* %30, i32 0, i32 0, !dbg !165
  %32 = getelementptr %"struct.std::_Vector_base<int, std::allocator<int>>::_Vector_impl_data", %"struct.std::_Vector_base<int, std::allocator<int>>::_Vector_impl_data"* %31, i32 0, i32 0, !dbg !167
  %33 = load i32*, i32** %32, align 8, !dbg !165
  %34 = call %"class.std::move_iterator" @_ZSt32__make_move_if_noexcept_iteratorIiSt13move_iteratorIPiEET0_PT_(i32* %33), !dbg !168
  store %"class.std::move_iterator" %34, %"class.std::move_iterator"* %5, align 8, !dbg !168
  call void @_ZNSt13move_iteratorIPiEC1EOS1_(%"class.std::move_iterator"* %6, %"class.std::move_iterator"* %5), !dbg !168
  %35 = getelementptr %"struct.std::_Vector_base<int, std::allocator<int>>::_Vector_impl_data", %"struct.std::_Vector_base<int, std::allocator<int>>::_Vector_impl_data"* %31, i32 0, i32 1, !dbg !171
  %36 = load i32*, i32** %35, align 8, !dbg !172
  %37 = call %"class.std::move_iterator" @_ZSt32__make_move_if_noexcept_iteratorIiSt13move_iteratorIPiEET0_PT_(i32* %36), !dbg !168
  store %"class.std::move_iterator" %37, %"class.std::move_iterator"* %3, align 8, !dbg !168
  call void @_ZNSt13move_iteratorIPiEC1EOS1_(%"class.std::move_iterator"* %4, %"class.std::move_iterator"* %3), !dbg !168
  %38 = load %"class.std::move_iterator", %"class.std::move_iterator"* %6, align 8, !dbg !173
  %39 = load %"class.std::move_iterator", %"class.std::move_iterator"* %4, align 8, !dbg !173
  %40 = call i32* @_ZNSt6vectorIiSaIiEE20_M_allocate_and_copyISt13move_iteratorIPiEEES4_mT_S6_(%"class.std::vector"* %0, i64 %1, %"class.std::move_iterator" %38, %"class.std::move_iterator" %39), !dbg !173
  %41 = call %"class.std::allocator"* @_ZNSt12_Vector_baseIiSaIiEE19_M_get_Tp_allocatorEv(%"struct.std::_Vector_base"* %29), !dbg !174
  br label %42, !dbg !149

42:                                               ; preds = %17, %28
  %43 = phi i32* [ %40, %28 ], [ %19, %17 ]
  br label %44, !dbg !149

44:                                               ; preds = %42
  %45 = getelementptr %"class.std::vector", %"class.std::vector"* %0, i32 0, i32 0, !dbg !175
  %46 = getelementptr %"struct.std::_Vector_base", %"struct.std::_Vector_base"* %45, i32 0, i32 0, !dbg !176
  %47 = getelementptr %"struct.std::_Vector_base<int, std::allocator<int>>::_Vector_impl", %"struct.std::_Vector_base<int, std::allocator<int>>::_Vector_impl"* %46, i32 0, i32 0, !dbg !177
  %48 = getelementptr %"struct.std::_Vector_base<int, std::allocator<int>>::_Vector_impl_data", %"struct.std::_Vector_base<int, std::allocator<int>>::_Vector_impl_data"* %47, i32 0, i32 0, !dbg !178
  %49 = load i32*, i32** %48, align 8, !dbg !177
  %50 = getelementptr %"struct.std::_Vector_base<int, std::allocator<int>>::_Vector_impl_data", %"struct.std::_Vector_base<int, std::allocator<int>>::_Vector_impl_data"* %47, i32 0, i32 2, !dbg !179
  %51 = load i32*, i32** %50, align 8, !dbg !180
  %52 = ptrtoint i32* %49 to i64, !dbg !181
  %53 = ptrtoint i32* %51 to i64, !dbg !181
  %54 = sub i64 %53, %52, !dbg !181
  %55 = sdiv i64 %54, 4, !dbg !181
  call void @_ZNSt12_Vector_baseIiSaIiEE13_M_deallocateEPim(%"struct.std::_Vector_base"* %45, i32* %49, i64 %55), !dbg !175
  store i32* %43, i32** %48, align 8, !dbg !182
  %56 = getelementptr %"struct.std::_Vector_base<int, std::allocator<int>>::_Vector_impl_data", %"struct.std::_Vector_base<int, std::allocator<int>>::_Vector_impl_data"* %47, i32 0, i32 1, !dbg !183
  %57 = getelementptr i32, i32* %43, i64 %14, !dbg !184
  store i32* %57, i32** %56, align 8, !dbg !185
  %58 = load i32*, i32** %48, align 8, !dbg !186
  %59 = getelementptr i32, i32* %58, i64 %1, !dbg !187
  store i32* %59, i32** %50, align 8, !dbg !188
  br label %60, !dbg !146

60:                                               ; preds = %44, %10
  ret void, !dbg !189
}

define linkonce_odr i32* @_ZNKSt6vectorIiSaIiEEixEm(%"class.std::vector"* %0, i64 %1) #1 !dbg !190 {
  %3 = getelementptr %"class.std::vector", %"class.std::vector"* %0, i32 0, i32 0, !dbg !191
  %4 = getelementptr %"struct.std::_Vector_base", %"struct.std::_Vector_base"* %3, i32 0, i32 0, !dbg !193
  %5 = getelementptr %"struct.std::_Vector_base<int, std::allocator<int>>::_Vector_impl", %"struct.std::_Vector_base<int, std::allocator<int>>::_Vector_impl"* %4, i32 0, i32 0, !dbg !191
  %6 = getelementptr %"struct.std::_Vector_base<int, std::allocator<int>>::_Vector_impl_data", %"struct.std::_Vector_base<int, std::allocator<int>>::_Vector_impl_data"* %5, i32 0, i32 0, !dbg !194
  %7 = load i32*, i32** %6, align 8, !dbg !191
  %8 = getelementptr i32, i32* %7, i64 %1, !dbg !195
  ret i32* %8, !dbg !196
}

declare i8 @_Z15step1_firstTimei(i32) #1

define linkonce_odr void @_ZNSt6vectorIiSaIiEE9push_backERKi(%"class.std::vector"* %0, i32* %1) #1 !dbg !197 {
  %3 = alloca %"class.__gnu_cxx::__normal_iterator", i64 1, align 8
  %4 = alloca %"class.__gnu_cxx::__normal_iterator", i64 1, align 8
  %5 = getelementptr %"class.std::vector", %"class.std::vector"* %0, i32 0, i32 0, !dbg !198
  %6 = getelementptr %"struct.std::_Vector_base", %"struct.std::_Vector_base"* %5, i32 0, i32 0, !dbg !200
  %7 = getelementptr %"struct.std::_Vector_base<int, std::allocator<int>>::_Vector_impl", %"struct.std::_Vector_base<int, std::allocator<int>>::_Vector_impl"* %6, i32 0, i32 0, !dbg !198
  %8 = getelementptr %"struct.std::_Vector_base<int, std::allocator<int>>::_Vector_impl_data", %"struct.std::_Vector_base<int, std::allocator<int>>::_Vector_impl_data"* %7, i32 0, i32 1, !dbg !201
  %9 = load i32*, i32** %8, align 8, !dbg !198
  %10 = getelementptr %"struct.std::_Vector_base<int, std::allocator<int>>::_Vector_impl_data", %"struct.std::_Vector_base<int, std::allocator<int>>::_Vector_impl_data"* %7, i32 0, i32 2, !dbg !202
  %11 = load i32*, i32** %10, align 8, !dbg !203
  %12 = icmp ne i32* %9, %11, !dbg !204
  br i1 %12, label %13, label %20, !dbg !205

13:                                               ; preds = %2
  %14 = bitcast %"struct.std::_Vector_base<int, std::allocator<int>>::_Vector_impl"* %6 to %"class.std::allocator"*, !dbg !206
  %15 = icmp ne %"class.std::allocator"* %14, null, !dbg !206
  %16 = select i1 %15, %"class.std::allocator"* %14, %"class.std::allocator"* null, !dbg !206
  %17 = load i32*, i32** %8, align 8, !dbg !207
  call void @_ZNSt16allocator_traitsISaIiEE9constructIiJRKiEEEvRS0_PT_DpOT0_(%"class.std::allocator"* %16, i32* %17, i32* %1), !dbg !208
  %18 = load i32*, i32** %8, align 8, !dbg !209
  %19 = getelementptr i32, i32* %18, i32 1, !dbg !209
  store i32* %19, i32** %8, align 8, !dbg !209
  br label %23, !dbg !205

20:                                               ; preds = %2
  %21 = call %"class.__gnu_cxx::__normal_iterator" @_ZNSt6vectorIiSaIiEE3endEv(%"class.std::vector"* %0), !dbg !210
  store %"class.__gnu_cxx::__normal_iterator" %21, %"class.__gnu_cxx::__normal_iterator"* %3, align 8, !dbg !210
  call void @_ZN9__gnu_cxx17__normal_iteratorIPiSt6vectorIiSaIiEEEC1EOS5_(%"class.__gnu_cxx::__normal_iterator"* %4, %"class.__gnu_cxx::__normal_iterator"* %3), !dbg !210
  %22 = load %"class.__gnu_cxx::__normal_iterator", %"class.__gnu_cxx::__normal_iterator"* %4, align 8, !dbg !211
  call void @_ZNSt6vectorIiSaIiEE17_M_realloc_insertIJRKiEEEvN9__gnu_cxx17__normal_iteratorIPiS1_EEDpOT_(%"class.std::vector"* %0, %"class.__gnu_cxx::__normal_iterator" %22, i32* %1), !dbg !211
  br label %23, !dbg !205

23:                                               ; preds = %13, %20
  ret void, !dbg !212
}

define linkonce_odr void @_ZNSt6chrono8durationIlSt5ratioILl1ELl1000000EEEC1IlvEERKT_(%"struct.std::chrono::duration.0"* %0, i64* %1) #1 !dbg !213 {
  %3 = load i64, i64* %1, align 8, !dbg !214
  %4 = getelementptr %"struct.std::chrono::duration.0", %"struct.std::chrono::duration.0"* %0, i32 0, i32 0, !dbg !216
  store i64 %3, i64* %4, align 8, !dbg !216
  ret void, !dbg !217
}

define linkonce_odr i64 @_ZNKSt6chrono8durationIlSt5ratioILl1ELl1000000000EEE5countEv(%"struct.std::chrono::duration"* %0) #1 !dbg !218 {
  %2 = getelementptr %"struct.std::chrono::duration", %"struct.std::chrono::duration"* %0, i32 0, i32 0, !dbg !219
  %3 = load i64, i64* %2, align 8, !dbg !219
  ret i64 %3, !dbg !221
}

define linkonce_odr void @_ZNSt12_Vector_baseIiSaIiEEC1Ev(%"struct.std::_Vector_base"* %0) #1 !dbg !222 {
  %2 = getelementptr %"struct.std::_Vector_base", %"struct.std::_Vector_base"* %0, i32 0, i32 0, !dbg !223
  call void @_ZNSt12_Vector_baseIiSaIiEE12_Vector_implC1Ev(%"struct.std::_Vector_base<int, std::allocator<int>>::_Vector_impl"* %2), !dbg !223
  ret void, !dbg !225
}

define linkonce_odr i64 @_ZNKSt6vectorIiSaIiEE8max_sizeEv(%"class.std::vector"* %0) #1 !dbg !226 {
  %2 = getelementptr %"class.std::vector", %"class.std::vector"* %0, i32 0, i32 0, !dbg !227
  %3 = call %"class.std::allocator"* @_ZNKSt12_Vector_baseIiSaIiEE19_M_get_Tp_allocatorEv(%"struct.std::_Vector_base"* %2), !dbg !227
  %4 = call i64 @_ZNSt6vectorIiSaIiEE11_S_max_sizeERKS0_(%"class.std::allocator"* %3), !dbg !229
  ret i64 %4, !dbg !230
}

declare void @_ZSt20__throw_length_errorPKc(i8*) #1

define linkonce_odr i64 @_ZNKSt6vectorIiSaIiEE8capacityEv(%"class.std::vector"* %0) #1 !dbg !231 {
  %2 = getelementptr %"class.std::vector", %"class.std::vector"* %0, i32 0, i32 0, !dbg !232
  %3 = getelementptr %"struct.std::_Vector_base", %"struct.std::_Vector_base"* %2, i32 0, i32 0, !dbg !234
  %4 = getelementptr %"struct.std::_Vector_base<int, std::allocator<int>>::_Vector_impl", %"struct.std::_Vector_base<int, std::allocator<int>>::_Vector_impl"* %3, i32 0, i32 0, !dbg !232
  %5 = getelementptr %"struct.std::_Vector_base<int, std::allocator<int>>::_Vector_impl_data", %"struct.std::_Vector_base<int, std::allocator<int>>::_Vector_impl_data"* %4, i32 0, i32 2, !dbg !235
  %6 = load i32*, i32** %5, align 8, !dbg !232
  %7 = getelementptr %"struct.std::_Vector_base<int, std::allocator<int>>::_Vector_impl_data", %"struct.std::_Vector_base<int, std::allocator<int>>::_Vector_impl_data"* %4, i32 0, i32 0, !dbg !236
  %8 = load i32*, i32** %7, align 8, !dbg !237
  %9 = ptrtoint i32* %8 to i64, !dbg !238
  %10 = ptrtoint i32* %6 to i64, !dbg !238
  %11 = sub i64 %10, %9, !dbg !238
  %12 = sdiv i64 %11, 4, !dbg !238
  ret i64 %12, !dbg !239
}

define linkonce_odr i8 @_ZNSt6vectorIiSaIiEE15_S_use_relocateEv() #1 !dbg !240 {
  %1 = alloca %"struct.std::__is_move_insertable", i64 1, align 8
  %2 = bitcast %"struct.std::__is_move_insertable"* %1 to i8*, !dbg !241
  call void @llvm.memset.p0i8.i64(i8* %2, i8 0, i64 1, i1 false), !dbg !241
  ret i8 1, !dbg !243
}

define linkonce_odr i32* @_ZNSt12_Vector_baseIiSaIiEE11_M_allocateEm(%"struct.std::_Vector_base"* %0, i64 %1) #1 !dbg !244 {
  %3 = icmp ne i64 %1, 0, !dbg !245
  br i1 %3, label %4, label %10, !dbg !247

4:                                                ; preds = %2
  %5 = getelementptr %"struct.std::_Vector_base", %"struct.std::_Vector_base"* %0, i32 0, i32 0, !dbg !248
  %6 = bitcast %"struct.std::_Vector_base<int, std::allocator<int>>::_Vector_impl"* %5 to %"class.std::allocator"*, !dbg !248
  %7 = icmp ne %"class.std::allocator"* %6, null, !dbg !248
  %8 = select i1 %7, %"class.std::allocator"* %6, %"class.std::allocator"* null, !dbg !248
  %9 = call i32* @_ZNSt16allocator_traitsISaIiEE8allocateERS0_m(%"class.std::allocator"* %8, i64 %1), !dbg !249
  br label %11, !dbg !247

10:                                               ; preds = %2
  br label %11, !dbg !247

11:                                               ; preds = %4, %10
  %12 = phi i32* [ null, %10 ], [ %9, %4 ]
  br label %13, !dbg !247

13:                                               ; preds = %11
  ret i32* %12, !dbg !250
}

define linkonce_odr i32* @_ZNSt6vectorIiSaIiEE11_S_relocateEPiS2_S2_RS0_(i32* %0, i32* %1, i32* %2, %"class.std::allocator"* %3) #1 !dbg !251 {
  %5 = call i32* @_ZSt14__relocate_a_1IiiENSt9enable_ifIXsr3std24__is_bitwise_relocatableIT_EE5valueEPS1_E4typeES2_S2_S2_RSaIT0_E(i32* %0, i32* %1, i32* %2, %"class.std::allocator"* %3), !dbg !252
  ret i32* %5, !dbg !257
}

define linkonce_odr %"class.std::allocator"* @_ZNSt12_Vector_baseIiSaIiEE19_M_get_Tp_allocatorEv(%"struct.std::_Vector_base"* %0) #1 !dbg !258 {
  %2 = getelementptr %"struct.std::_Vector_base", %"struct.std::_Vector_base"* %0, i32 0, i32 0, !dbg !259
  %3 = bitcast %"struct.std::_Vector_base<int, std::allocator<int>>::_Vector_impl"* %2 to %"class.std::allocator"*, !dbg !261
  %4 = icmp ne %"class.std::allocator"* %3, null, !dbg !261
  %5 = select i1 %4, %"class.std::allocator"* %3, %"class.std::allocator"* null, !dbg !261
  ret %"class.std::allocator"* %5, !dbg !262
}

define linkonce_odr i32* @_ZNSt6vectorIiSaIiEE20_M_allocate_and_copyISt13move_iteratorIPiEEES4_mT_S6_(%"class.std::vector"* %0, i64 %1, %"class.std::move_iterator" %2, %"class.std::move_iterator" %3) #1 !dbg !263 {
  %5 = alloca %"class.std::move_iterator", i64 1, align 8
  %6 = alloca %"class.std::move_iterator", i64 1, align 8
  %7 = alloca %"class.std::move_iterator", i64 1, align 8, !dbg !264
  %8 = alloca %"class.std::move_iterator", i64 1, align 8, !dbg !266
  store %"class.std::move_iterator" %2, %"class.std::move_iterator"* %8, align 8, !dbg !266
  store %"class.std::move_iterator" %3, %"class.std::move_iterator"* %7, align 8, !dbg !264
  %9 = getelementptr %"class.std::vector", %"class.std::vector"* %0, i32 0, i32 0, !dbg !267
  %10 = call i32* @_ZNSt12_Vector_baseIiSaIiEE11_M_allocateEm(%"struct.std::_Vector_base"* %9, i64 %1), !dbg !268
  call void @_ZNSt13move_iteratorIPiEC1ERKS1_(%"class.std::move_iterator"* %6, %"class.std::move_iterator"* %8), !dbg !269
  call void @_ZNSt13move_iteratorIPiEC1ERKS1_(%"class.std::move_iterator"* %5, %"class.std::move_iterator"* %7), !dbg !270
  %11 = call %"class.std::allocator"* @_ZNSt12_Vector_baseIiSaIiEE19_M_get_Tp_allocatorEv(%"struct.std::_Vector_base"* %9), !dbg !271
  %12 = load %"class.std::move_iterator", %"class.std::move_iterator"* %6, align 8, !dbg !272
  %13 = load %"class.std::move_iterator", %"class.std::move_iterator"* %5, align 8, !dbg !272
  %14 = call i32* @_ZSt22__uninitialized_copy_aISt13move_iteratorIPiES1_iET0_T_S4_S3_RSaIT1_E(%"class.std::move_iterator" %12, %"class.std::move_iterator" %13, i32* %10, %"class.std::allocator"* %11), !dbg !272
  ret i32* %10, !dbg !273
}

define linkonce_odr void @_ZNSt13move_iteratorIPiEC1EOS1_(%"class.std::move_iterator"* %0, %"class.std::move_iterator"* %1) #1 !dbg !274 {
  %3 = getelementptr %"class.std::move_iterator", %"class.std::move_iterator"* %1, i32 0, i32 0, !dbg !275
  %4 = load i32*, i32** %3, align 8, !dbg !275
  %5 = getelementptr %"class.std::move_iterator", %"class.std::move_iterator"* %0, i32 0, i32 0, !dbg !275
  store i32* %4, i32** %5, align 8, !dbg !275
  ret void, !dbg !275
}

define linkonce_odr %"class.std::move_iterator" @_ZSt32__make_move_if_noexcept_iteratorIiSt13move_iteratorIPiEET0_PT_(i32* %0) #1 !dbg !277 {
  %2 = alloca %"class.std::move_iterator", i64 1, align 8
  %3 = alloca %"class.std::move_iterator", i64 1, align 8
  %4 = alloca %"class.std::move_iterator", i64 1, align 8
  call void @_ZNSt13move_iteratorIPiEC1ES0_(%"class.std::move_iterator"* %3, i32* %0), !dbg !278
  %5 = load %"class.std::move_iterator", %"class.std::move_iterator"* %3, align 8, !dbg !278
  store %"class.std::move_iterator" %5, %"class.std::move_iterator"* %2, align 8, !dbg !278
  call void @_ZNSt13move_iteratorIPiEC1EOS1_(%"class.std::move_iterator"* %4, %"class.std::move_iterator"* %2), !dbg !278
  %6 = load %"class.std::move_iterator", %"class.std::move_iterator"* %4, align 8, !dbg !280
  ret %"class.std::move_iterator" %6, !dbg !281
}

define linkonce_odr void @_ZSt8_DestroyIPiiEvT_S1_RSaIT0_E(i32* %0, i32* %1, %"class.std::allocator"* %2) #1 !dbg !282 {
  ret void, !dbg !284
}

define linkonce_odr void @_ZNSt12_Vector_baseIiSaIiEE13_M_deallocateEPim(%"struct.std::_Vector_base"* %0, i32* %1, i64 %2) #1 !dbg !286 {
  %4 = icmp ne i32* %1, null, !dbg !287
  br i1 %4, label %5, label %10

5:                                                ; preds = %3
  %6 = getelementptr %"struct.std::_Vector_base", %"struct.std::_Vector_base"* %0, i32 0, i32 0, !dbg !289
  %7 = bitcast %"struct.std::_Vector_base<int, std::allocator<int>>::_Vector_impl"* %6 to %"class.std::allocator"*, !dbg !289
  %8 = icmp ne %"class.std::allocator"* %7, null, !dbg !289
  %9 = select i1 %8, %"class.std::allocator"* %7, %"class.std::allocator"* null, !dbg !289
  call void @_ZNSt16allocator_traitsISaIiEE10deallocateERS0_Pim(%"class.std::allocator"* %9, i32* %1, i64 %2), !dbg !290
  br label %10

10:                                               ; preds = %5, %3
  ret void, !dbg !291
}

define linkonce_odr void @_ZNSt16allocator_traitsISaIiEE9constructIiJRKiEEEvRS0_PT_DpOT0_(%"class.std::allocator"* %0, i32* %1, i32* %2) #1 !dbg !292 {
  %4 = bitcast %"class.std::allocator"* %0 to %"class.__gnu_cxx::new_allocator"*, !dbg !294
  call void @_ZN9__gnu_cxx13new_allocatorIiE9constructIiJRKiEEEvPT_DpOT0_(%"class.__gnu_cxx::new_allocator"* %4, i32* %1, i32* %2), !dbg !296
  ret void, !dbg !297
}

define linkonce_odr void @_ZNSt6vectorIiSaIiEE17_M_realloc_insertIJRKiEEEvN9__gnu_cxx17__normal_iteratorIPiS1_EEDpOT_(%"class.std::vector"* %0, %"class.__gnu_cxx::__normal_iterator" %1, i32* %2) #1 !dbg !298 {
  %4 = alloca %"class.__gnu_cxx::__normal_iterator", i64 1, align 8
  %5 = alloca %"class.__gnu_cxx::__normal_iterator", i64 1, align 8, !dbg !299
  store %"class.__gnu_cxx::__normal_iterator" %1, %"class.__gnu_cxx::__normal_iterator"* %5, align 8, !dbg !299
  %6 = call i64 @_ZNKSt6vectorIiSaIiEE12_M_check_lenEmPKc(%"class.std::vector"* %0, i64 1, i8* getelementptr inbounds ([26 x i8], [26 x i8]* @str6, i32 0, i32 0)), !dbg !301
  %7 = getelementptr %"class.std::vector", %"class.std::vector"* %0, i32 0, i32 0, !dbg !303
  %8 = getelementptr %"struct.std::_Vector_base", %"struct.std::_Vector_base"* %7, i32 0, i32 0, !dbg !304
  %9 = getelementptr %"struct.std::_Vector_base<int, std::allocator<int>>::_Vector_impl", %"struct.std::_Vector_base<int, std::allocator<int>>::_Vector_impl"* %8, i32 0, i32 0, !dbg !303
  %10 = getelementptr %"struct.std::_Vector_base<int, std::allocator<int>>::_Vector_impl_data", %"struct.std::_Vector_base<int, std::allocator<int>>::_Vector_impl_data"* %9, i32 0, i32 0, !dbg !305
  %11 = load i32*, i32** %10, align 8, !dbg !303
  %12 = getelementptr %"struct.std::_Vector_base<int, std::allocator<int>>::_Vector_impl_data", %"struct.std::_Vector_base<int, std::allocator<int>>::_Vector_impl_data"* %9, i32 0, i32 1, !dbg !306
  %13 = load i32*, i32** %12, align 8, !dbg !307
  %14 = call %"class.__gnu_cxx::__normal_iterator" @_ZNSt6vectorIiSaIiEE5beginEv(%"class.std::vector"* %0), !dbg !308
  store %"class.__gnu_cxx::__normal_iterator" %14, %"class.__gnu_cxx::__normal_iterator"* %4, align 8, !dbg !308
  %15 = call i64 @_ZN9__gnu_cxxmiIPiSt6vectorIiSaIiEEEENS_17__normal_iteratorIT_T0_E15difference_typeERKS8_SB_(%"class.__gnu_cxx::__normal_iterator"* %5, %"class.__gnu_cxx::__normal_iterator"* %4), !dbg !309
  %16 = call i32* @_ZNSt12_Vector_baseIiSaIiEE11_M_allocateEm(%"struct.std::_Vector_base"* %7, i64 %6), !dbg !310
  %17 = bitcast %"struct.std::_Vector_base<int, std::allocator<int>>::_Vector_impl"* %8 to %"class.std::allocator"*, !dbg !311
  %18 = icmp ne %"class.std::allocator"* %17, null, !dbg !311
  %19 = select i1 %18, %"class.std::allocator"* %17, %"class.std::allocator"* null, !dbg !311
  %20 = getelementptr i32, i32* %16, i64 %15, !dbg !312
  call void @_ZNSt16allocator_traitsISaIiEE9constructIiJRKiEEEvRS0_PT_DpOT0_(%"class.std::allocator"* %19, i32* %20, i32* %2), !dbg !313
  %21 = call i8 @_ZNSt6vectorIiSaIiEE15_S_use_relocateEv(), !dbg !314
  %22 = icmp ne i8 %21, 0, !dbg !315
  br i1 %22, label %23, label %33, !dbg !315

23:                                               ; preds = %3
  %24 = call i32** @_ZNK9__gnu_cxx17__normal_iteratorIPiSt6vectorIiSaIiEEE4baseEv(%"class.__gnu_cxx::__normal_iterator"* %5), !dbg !316
  %25 = load i32*, i32** %24, align 8, !dbg !317
  %26 = call %"class.std::allocator"* @_ZNSt12_Vector_baseIiSaIiEE19_M_get_Tp_allocatorEv(%"struct.std::_Vector_base"* %7), !dbg !318
  %27 = call i32* @_ZSt14__relocate_a_1IiiENSt9enable_ifIXsr3std24__is_bitwise_relocatableIT_EE5valueEPS1_E4typeES2_S2_S2_RSaIT0_E(i32* %11, i32* %25, i32* %16, %"class.std::allocator"* %26), !dbg !319
  %28 = getelementptr i32, i32* %27, i32 1, !dbg !324
  %29 = call i32** @_ZNK9__gnu_cxx17__normal_iteratorIPiSt6vectorIiSaIiEEE4baseEv(%"class.__gnu_cxx::__normal_iterator"* %5), !dbg !325
  %30 = load i32*, i32** %29, align 8, !dbg !326
  %31 = call %"class.std::allocator"* @_ZNSt12_Vector_baseIiSaIiEE19_M_get_Tp_allocatorEv(%"struct.std::_Vector_base"* %7), !dbg !327
  %32 = call i32* @_ZSt14__relocate_a_1IiiENSt9enable_ifIXsr3std24__is_bitwise_relocatableIT_EE5valueEPS1_E4typeES2_S2_S2_RSaIT0_E(i32* %30, i32* %13, i32* %28, %"class.std::allocator"* %31), !dbg !319
  br label %43, !dbg !315

33:                                               ; preds = %3
  %34 = call i32** @_ZNK9__gnu_cxx17__normal_iteratorIPiSt6vectorIiSaIiEEE4baseEv(%"class.__gnu_cxx::__normal_iterator"* %5), !dbg !328
  %35 = load i32*, i32** %34, align 8, !dbg !329
  %36 = call %"class.std::allocator"* @_ZNSt12_Vector_baseIiSaIiEE19_M_get_Tp_allocatorEv(%"struct.std::_Vector_base"* %7), !dbg !330
  %37 = call i32* @_ZSt34__uninitialized_move_if_noexcept_aIPiS0_SaIiEET0_T_S3_S2_RT1_(i32* %11, i32* %35, i32* %16, %"class.std::allocator"* %36), !dbg !331
  %38 = getelementptr i32, i32* %37, i32 1, !dbg !332
  %39 = call i32** @_ZNK9__gnu_cxx17__normal_iteratorIPiSt6vectorIiSaIiEEE4baseEv(%"class.__gnu_cxx::__normal_iterator"* %5), !dbg !333
  %40 = load i32*, i32** %39, align 8, !dbg !334
  %41 = call %"class.std::allocator"* @_ZNSt12_Vector_baseIiSaIiEE19_M_get_Tp_allocatorEv(%"struct.std::_Vector_base"* %7), !dbg !335
  %42 = call i32* @_ZSt34__uninitialized_move_if_noexcept_aIPiS0_SaIiEET0_T_S3_S2_RT1_(i32* %40, i32* %13, i32* %38, %"class.std::allocator"* %41), !dbg !336
  br label %43, !dbg !315

43:                                               ; preds = %23, %33
  %44 = phi i32* [ %42, %33 ], [ %32, %23 ]
  br label %45, !dbg !315

45:                                               ; preds = %43
  %46 = call i8 @_ZNSt6vectorIiSaIiEE15_S_use_relocateEv(), !dbg !337
  %47 = icmp eq i8 %46, 0, !dbg !338
  br i1 %47, label %48, label %50, !dbg !339

48:                                               ; preds = %45
  %49 = call %"class.std::allocator"* @_ZNSt12_Vector_baseIiSaIiEE19_M_get_Tp_allocatorEv(%"struct.std::_Vector_base"* %7), !dbg !340
  br label %50, !dbg !339

50:                                               ; preds = %48, %45
  %51 = getelementptr %"struct.std::_Vector_base<int, std::allocator<int>>::_Vector_impl_data", %"struct.std::_Vector_base<int, std::allocator<int>>::_Vector_impl_data"* %9, i32 0, i32 2, !dbg !341
  %52 = load i32*, i32** %51, align 8, !dbg !342
  %53 = ptrtoint i32* %11 to i64, !dbg !343
  %54 = ptrtoint i32* %52 to i64, !dbg !343
  %55 = sub i64 %54, %53, !dbg !343
  %56 = sdiv i64 %55, 4, !dbg !343
  call void @_ZNSt12_Vector_baseIiSaIiEE13_M_deallocateEPim(%"struct.std::_Vector_base"* %7, i32* %11, i64 %56), !dbg !344
  store i32* %16, i32** %10, align 8, !dbg !345
  store i32* %44, i32** %12, align 8, !dbg !346
  %57 = getelementptr i32, i32* %16, i64 %6, !dbg !347
  store i32* %57, i32** %51, align 8, !dbg !348
  ret void, !dbg !349
}

define linkonce_odr void @_ZN9__gnu_cxx17__normal_iteratorIPiSt6vectorIiSaIiEEEC1EOS5_(%"class.__gnu_cxx::__normal_iterator"* %0, %"class.__gnu_cxx::__normal_iterator"* %1) #1 !dbg !350 {
  %3 = getelementptr %"class.__gnu_cxx::__normal_iterator", %"class.__gnu_cxx::__normal_iterator"* %1, i32 0, i32 0, !dbg !351
  %4 = load i32*, i32** %3, align 8, !dbg !351
  %5 = getelementptr %"class.__gnu_cxx::__normal_iterator", %"class.__gnu_cxx::__normal_iterator"* %0, i32 0, i32 0, !dbg !351
  store i32* %4, i32** %5, align 8, !dbg !351
  ret void, !dbg !351
}

define linkonce_odr %"class.__gnu_cxx::__normal_iterator" @_ZNSt6vectorIiSaIiEE3endEv(%"class.std::vector"* %0) #1 !dbg !353 {
  %2 = alloca %"class.__gnu_cxx::__normal_iterator", i64 1, align 8
  %3 = alloca %"class.__gnu_cxx::__normal_iterator", i64 1, align 8
  %4 = alloca %"class.__gnu_cxx::__normal_iterator", i64 1, align 8
  %5 = getelementptr %"class.std::vector", %"class.std::vector"* %0, i32 0, i32 0, !dbg !354
  %6 = getelementptr %"struct.std::_Vector_base", %"struct.std::_Vector_base"* %5, i32 0, i32 0, !dbg !356
  %7 = getelementptr %"struct.std::_Vector_base<int, std::allocator<int>>::_Vector_impl", %"struct.std::_Vector_base<int, std::allocator<int>>::_Vector_impl"* %6, i32 0, i32 0, !dbg !354
  %8 = getelementptr %"struct.std::_Vector_base<int, std::allocator<int>>::_Vector_impl_data", %"struct.std::_Vector_base<int, std::allocator<int>>::_Vector_impl_data"* %7, i32 0, i32 1, !dbg !357
  call void @_ZN9__gnu_cxx17__normal_iteratorIPiSt6vectorIiSaIiEEEC1ERKS1_(%"class.__gnu_cxx::__normal_iterator"* %3, i32** %8), !dbg !358
  %9 = load %"class.__gnu_cxx::__normal_iterator", %"class.__gnu_cxx::__normal_iterator"* %3, align 8, !dbg !358
  store %"class.__gnu_cxx::__normal_iterator" %9, %"class.__gnu_cxx::__normal_iterator"* %2, align 8, !dbg !358
  call void @_ZN9__gnu_cxx17__normal_iteratorIPiSt6vectorIiSaIiEEEC1EOS5_(%"class.__gnu_cxx::__normal_iterator"* %4, %"class.__gnu_cxx::__normal_iterator"* %2), !dbg !358
  %10 = load %"class.__gnu_cxx::__normal_iterator", %"class.__gnu_cxx::__normal_iterator"* %4, align 8, !dbg !359
  ret %"class.__gnu_cxx::__normal_iterator" %10, !dbg !360
}

define linkonce_odr void @_ZNSt12_Vector_baseIiSaIiEE12_Vector_implC1Ev(%"struct.std::_Vector_base<int, std::allocator<int>>::_Vector_impl"* %0) #1 !dbg !361 {
  %2 = getelementptr %"struct.std::_Vector_base<int, std::allocator<int>>::_Vector_impl", %"struct.std::_Vector_base<int, std::allocator<int>>::_Vector_impl"* %0, i32 0, i32 0, !dbg !362
  call void @_ZNSt12_Vector_baseIiSaIiEE17_Vector_impl_dataC1Ev(%"struct.std::_Vector_base<int, std::allocator<int>>::_Vector_impl_data"* %2), !dbg !362
  ret void, !dbg !364
}

define linkonce_odr i64 @_ZNSt6vectorIiSaIiEE11_S_max_sizeERKS0_(%"class.std::allocator"* %0) #1 !dbg !365 {
  %2 = alloca i64, i64 1, align 8, !dbg !366
  store i64 undef, i64* %2, align 8, !dbg !366
  %3 = alloca i64, i64 1, align 8, !dbg !368
  store i64 undef, i64* %3, align 8, !dbg !368
  store i64 2305843009213693951, i64* %3, align 8, !dbg !368
  store i64 2305843009213693951, i64* %2, align 8, !dbg !366
  %4 = call i64* @_ZSt3minImERKT_S2_S2_(i64* %3, i64* %2), !dbg !369
  %5 = load i64, i64* %4, align 8, !dbg !369
  ret i64 %5, !dbg !370
}

define linkonce_odr %"class.std::allocator"* @_ZNKSt12_Vector_baseIiSaIiEE19_M_get_Tp_allocatorEv(%"struct.std::_Vector_base"* %0) #1 !dbg !371 {
  %2 = getelementptr %"struct.std::_Vector_base", %"struct.std::_Vector_base"* %0, i32 0, i32 0, !dbg !372
  %3 = bitcast %"struct.std::_Vector_base<int, std::allocator<int>>::_Vector_impl"* %2 to %"class.std::allocator"*, !dbg !374
  %4 = icmp ne %"class.std::allocator"* %3, null, !dbg !374
  %5 = select i1 %4, %"class.std::allocator"* %3, %"class.std::allocator"* null, !dbg !374
  ret %"class.std::allocator"* %5, !dbg !375
}

define linkonce_odr i8 @_ZNSt6vectorIiSaIiEE19_S_nothrow_relocateESt17integral_constantIbLb1EE(%"struct.std::integral_constant" %0) #1 !dbg !376 {
  ret i8 1, !dbg !377
}

define linkonce_odr void @_ZNSt17integral_constantIbLb1EEC1EOS0_(%"struct.std::integral_constant"* %0, %"struct.std::integral_constant"* %1) #1 !dbg !379 {
  ret void, !dbg !381
}

define linkonce_odr i32* @_ZNSt16allocator_traitsISaIiEE8allocateERS0_m(%"class.std::allocator"* %0, i64 %1) #1 !dbg !383 {
  %3 = bitcast %"class.std::allocator"* %0 to %"class.__gnu_cxx::new_allocator"*, !dbg !384
  %4 = call i32* @_ZN9__gnu_cxx13new_allocatorIiE8allocateEmPKv(%"class.__gnu_cxx::new_allocator"* %3, i64 %1, i8* null), !dbg !386
  ret i32* %4, !dbg !387
}

define linkonce_odr i32* @_ZNSt6vectorIiSaIiEE14_S_do_relocateEPiS2_S2_RS0_St17integral_constantIbLb1EE(i32* %0, i32* %1, i32* %2, %"class.std::allocator"* %3, %"struct.std::integral_constant" %4) #1 !dbg !388 {
  %6 = call i32* @_ZSt14__relocate_a_1IiiENSt9enable_ifIXsr3std24__is_bitwise_relocatableIT_EE5valueEPS1_E4typeES2_S2_S2_RSaIT0_E(i32* %0, i32* %1, i32* %2, %"class.std::allocator"* %3), !dbg !389
  ret i32* %6, !dbg !393
}

define linkonce_odr i32* @_ZSt22__uninitialized_copy_aISt13move_iteratorIPiES1_iET0_T_S4_S3_RSaIT1_E(%"class.std::move_iterator" %0, %"class.std::move_iterator" %1, i32* %2, %"class.std::allocator"* %3) #1 !dbg !394 {
  %5 = alloca %"class.std::move_iterator", i64 1, align 8
  %6 = alloca %"class.std::move_iterator", i64 1, align 8
  %7 = alloca %"class.std::move_iterator", i64 1, align 8, !dbg !395
  %8 = alloca %"class.std::move_iterator", i64 1, align 8, !dbg !397
  store %"class.std::move_iterator" %0, %"class.std::move_iterator"* %8, align 8, !dbg !397
  store %"class.std::move_iterator" %1, %"class.std::move_iterator"* %7, align 8, !dbg !395
  call void @_ZNSt13move_iteratorIPiEC1ERKS1_(%"class.std::move_iterator"* %6, %"class.std::move_iterator"* %8), !dbg !398
  call void @_ZNSt13move_iteratorIPiEC1ERKS1_(%"class.std::move_iterator"* %5, %"class.std::move_iterator"* %7), !dbg !399
  %9 = load %"class.std::move_iterator", %"class.std::move_iterator"* %6, align 8, !dbg !400
  %10 = load %"class.std::move_iterator", %"class.std::move_iterator"* %5, align 8, !dbg !400
  %11 = call i32* @_ZSt18uninitialized_copyISt13move_iteratorIPiES1_ET0_T_S4_S3_(%"class.std::move_iterator" %9, %"class.std::move_iterator" %10, i32* %2), !dbg !400
  ret i32* %11, !dbg !401
}

define linkonce_odr void @_ZNSt13move_iteratorIPiEC1ERKS1_(%"class.std::move_iterator"* %0, %"class.std::move_iterator"* %1) #1 !dbg !402 {
  %3 = getelementptr %"class.std::move_iterator", %"class.std::move_iterator"* %1, i32 0, i32 0, !dbg !403
  %4 = load i32*, i32** %3, align 8, !dbg !403
  %5 = getelementptr %"class.std::move_iterator", %"class.std::move_iterator"* %0, i32 0, i32 0, !dbg !403
  store i32* %4, i32** %5, align 8, !dbg !403
  ret void, !dbg !403
}

define linkonce_odr void @_ZNSt13move_iteratorIPiEC1ES0_(%"class.std::move_iterator"* %0, i32* %1) #1 !dbg !405 {
  %3 = getelementptr %"class.std::move_iterator", %"class.std::move_iterator"* %0, i32 0, i32 0, !dbg !406
  store i32* %1, i32** %3, align 8, !dbg !406
  ret void, !dbg !408
}

define linkonce_odr void @_ZSt8_DestroyIPiEvT_S1_(i32* %0, i32* %1) #1 !dbg !409 {
  ret void, !dbg !410
}

define linkonce_odr void @_ZNSt16allocator_traitsISaIiEE10deallocateERS0_Pim(%"class.std::allocator"* %0, i32* %1, i64 %2) #1 !dbg !412 {
  %4 = bitcast %"class.std::allocator"* %0 to %"class.__gnu_cxx::new_allocator"*, !dbg !413
  call void @_ZN9__gnu_cxx13new_allocatorIiE10deallocateEPim(%"class.__gnu_cxx::new_allocator"* %4, i32* %1, i64 %2), !dbg !415
  ret void, !dbg !416
}

define linkonce_odr void @_ZN9__gnu_cxx13new_allocatorIiE9constructIiJRKiEEEvPT_DpOT0_(%"class.__gnu_cxx::new_allocator"* %0, i32* %1, i32* %2) #1 !dbg !417 {
  %4 = load i32, i32* %2, align 4, !dbg !419
  store i32 %4, i32* %1, align 4, !dbg !421
  ret void, !dbg !422
}

define linkonce_odr i64 @_ZNKSt6vectorIiSaIiEE12_M_check_lenEmPKc(%"class.std::vector"* %0, i64 %1, i8* %2) #1 !dbg !423 {
  %4 = alloca i64, i64 1, align 8
  store i64 undef, i64* %4, align 8
  %5 = alloca i64, i64 1, align 8, !dbg !424
  store i64 undef, i64* %5, align 8, !dbg !424
  store i64 %1, i64* %5, align 8, !dbg !424
  %6 = call i64 @_ZNKSt6vectorIiSaIiEE8max_sizeEv(%"class.std::vector"* %0), !dbg !426
  %7 = call i64 @_ZNKSt6vectorIiSaIiEE4sizeEv(%"class.std::vector"* %0), !dbg !427
  %8 = sub i64 %6, %7, !dbg !428
  %9 = load i64, i64* %5, align 8, !dbg !429
  %10 = icmp slt i64 %8, %9, !dbg !430
  br i1 %10, label %11, label %12, !dbg !431

11:                                               ; preds = %3
  call void @_ZSt20__throw_length_errorPKc(i8* %2), !dbg !432
  br label %12, !dbg !431

12:                                               ; preds = %11, %3
  %13 = call i64 @_ZNKSt6vectorIiSaIiEE4sizeEv(%"class.std::vector"* %0), !dbg !433
  %14 = call i64 @_ZNKSt6vectorIiSaIiEE4sizeEv(%"class.std::vector"* %0), !dbg !434
  store i64 %14, i64* %4, align 8, !dbg !434
  %15 = call i64* @_ZSt3maxImERKT_S2_S2_(i64* %4, i64* %5), !dbg !435
  %16 = load i64, i64* %15, align 8, !dbg !435
  %17 = add i64 %13, %16, !dbg !436
  %18 = call i64 @_ZNKSt6vectorIiSaIiEE4sizeEv(%"class.std::vector"* %0), !dbg !437
  %19 = icmp slt i64 %17, %18, !dbg !438
  br i1 %19, label %20, label %21, !dbg !439

20:                                               ; preds = %12
  br label %24, !dbg !439

21:                                               ; preds = %12
  %22 = call i64 @_ZNKSt6vectorIiSaIiEE8max_sizeEv(%"class.std::vector"* %0), !dbg !440
  %23 = icmp sgt i64 %17, %22, !dbg !441
  br label %24, !dbg !439

24:                                               ; preds = %20, %21
  %25 = phi i1 [ %23, %21 ], [ true, %20 ]
  br label %26, !dbg !439

26:                                               ; preds = %24
  br i1 %25, label %27, label %29, !dbg !442

27:                                               ; preds = %26
  %28 = call i64 @_ZNKSt6vectorIiSaIiEE8max_sizeEv(%"class.std::vector"* %0), !dbg !443
  br label %30, !dbg !442

29:                                               ; preds = %26
  br label %30, !dbg !442

30:                                               ; preds = %27, %29
  %31 = phi i64 [ %17, %29 ], [ %28, %27 ]
  br label %32, !dbg !442

32:                                               ; preds = %30
  ret i64 %31, !dbg !444
}

define linkonce_odr i64 @_ZN9__gnu_cxxmiIPiSt6vectorIiSaIiEEEENS_17__normal_iteratorIT_T0_E15difference_typeERKS8_SB_(%"class.__gnu_cxx::__normal_iterator"* %0, %"class.__gnu_cxx::__normal_iterator"* %1) #1 !dbg !445 {
  %3 = call i32** @_ZNK9__gnu_cxx17__normal_iteratorIPiSt6vectorIiSaIiEEE4baseEv(%"class.__gnu_cxx::__normal_iterator"* %0), !dbg !446
  %4 = load i32*, i32** %3, align 8, !dbg !448
  %5 = call i32** @_ZNK9__gnu_cxx17__normal_iteratorIPiSt6vectorIiSaIiEEE4baseEv(%"class.__gnu_cxx::__normal_iterator"* %1), !dbg !449
  %6 = load i32*, i32** %5, align 8, !dbg !450
  %7 = ptrtoint i32* %6 to i64, !dbg !451
  %8 = ptrtoint i32* %4 to i64, !dbg !451
  %9 = sub i64 %8, %7, !dbg !451
  %10 = sdiv i64 %9, 4, !dbg !451
  ret i64 %10, !dbg !452
}

define linkonce_odr %"class.__gnu_cxx::__normal_iterator" @_ZNSt6vectorIiSaIiEE5beginEv(%"class.std::vector"* %0) #1 !dbg !453 {
  %2 = alloca %"class.__gnu_cxx::__normal_iterator", i64 1, align 8
  %3 = alloca %"class.__gnu_cxx::__normal_iterator", i64 1, align 8
  %4 = alloca %"class.__gnu_cxx::__normal_iterator", i64 1, align 8
  %5 = getelementptr %"class.std::vector", %"class.std::vector"* %0, i32 0, i32 0, !dbg !454
  %6 = getelementptr %"struct.std::_Vector_base", %"struct.std::_Vector_base"* %5, i32 0, i32 0, !dbg !456
  %7 = getelementptr %"struct.std::_Vector_base<int, std::allocator<int>>::_Vector_impl", %"struct.std::_Vector_base<int, std::allocator<int>>::_Vector_impl"* %6, i32 0, i32 0, !dbg !454
  %8 = getelementptr %"struct.std::_Vector_base<int, std::allocator<int>>::_Vector_impl_data", %"struct.std::_Vector_base<int, std::allocator<int>>::_Vector_impl_data"* %7, i32 0, i32 0, !dbg !457
  call void @_ZN9__gnu_cxx17__normal_iteratorIPiSt6vectorIiSaIiEEEC1ERKS1_(%"class.__gnu_cxx::__normal_iterator"* %3, i32** %8), !dbg !458
  %9 = load %"class.__gnu_cxx::__normal_iterator", %"class.__gnu_cxx::__normal_iterator"* %3, align 8, !dbg !458
  store %"class.__gnu_cxx::__normal_iterator" %9, %"class.__gnu_cxx::__normal_iterator"* %2, align 8, !dbg !458
  call void @_ZN9__gnu_cxx17__normal_iteratorIPiSt6vectorIiSaIiEEEC1EOS5_(%"class.__gnu_cxx::__normal_iterator"* %4, %"class.__gnu_cxx::__normal_iterator"* %2), !dbg !458
  %10 = load %"class.__gnu_cxx::__normal_iterator", %"class.__gnu_cxx::__normal_iterator"* %4, align 8, !dbg !459
  ret %"class.__gnu_cxx::__normal_iterator" %10, !dbg !460
}

define linkonce_odr i32** @_ZNK9__gnu_cxx17__normal_iteratorIPiSt6vectorIiSaIiEEE4baseEv(%"class.__gnu_cxx::__normal_iterator"* %0) #1 !dbg !461 {
  %2 = getelementptr %"class.__gnu_cxx::__normal_iterator", %"class.__gnu_cxx::__normal_iterator"* %0, i32 0, i32 0, !dbg !462
  ret i32** %2, !dbg !464
}

define linkonce_odr i32* @_ZSt34__uninitialized_move_if_noexcept_aIPiS0_SaIiEET0_T_S3_S2_RT1_(i32* %0, i32* %1, i32* %2, %"class.std::allocator"* %3) #1 !dbg !465 {
  %5 = alloca %"class.std::move_iterator", i64 1, align 8
  %6 = alloca %"class.std::move_iterator", i64 1, align 8
  %7 = alloca %"class.std::move_iterator", i64 1, align 8
  %8 = alloca %"class.std::move_iterator", i64 1, align 8
  %9 = call %"class.std::move_iterator" @_ZSt32__make_move_if_noexcept_iteratorIiSt13move_iteratorIPiEET0_PT_(i32* %0), !dbg !466
  store %"class.std::move_iterator" %9, %"class.std::move_iterator"* %7, align 8, !dbg !466
  call void @_ZNSt13move_iteratorIPiEC1EOS1_(%"class.std::move_iterator"* %8, %"class.std::move_iterator"* %7), !dbg !466
  %10 = call %"class.std::move_iterator" @_ZSt32__make_move_if_noexcept_iteratorIiSt13move_iteratorIPiEET0_PT_(i32* %1), !dbg !466
  store %"class.std::move_iterator" %10, %"class.std::move_iterator"* %5, align 8, !dbg !466
  call void @_ZNSt13move_iteratorIPiEC1EOS1_(%"class.std::move_iterator"* %6, %"class.std::move_iterator"* %5), !dbg !466
  %11 = load %"class.std::move_iterator", %"class.std::move_iterator"* %8, align 8, !dbg !468
  %12 = load %"class.std::move_iterator", %"class.std::move_iterator"* %6, align 8, !dbg !468
  %13 = call i32* @_ZSt22__uninitialized_copy_aISt13move_iteratorIPiES1_iET0_T_S4_S3_RSaIT1_E(%"class.std::move_iterator" %11, %"class.std::move_iterator" %12, i32* %2, %"class.std::allocator"* %3), !dbg !468
  ret i32* %13, !dbg !470
}

define linkonce_odr void @_ZN9__gnu_cxx17__normal_iteratorIPiSt6vectorIiSaIiEEEC1ERKS1_(%"class.__gnu_cxx::__normal_iterator"* %0, i32** %1) #1 !dbg !471 {
  %3 = load i32*, i32** %1, align 8, !dbg !472
  %4 = getelementptr %"class.__gnu_cxx::__normal_iterator", %"class.__gnu_cxx::__normal_iterator"* %0, i32 0, i32 0, !dbg !474
  store i32* %3, i32** %4, align 8, !dbg !474
  ret void, !dbg !475
}

define linkonce_odr void @_ZNSaIiEC1Ev(%"class.std::allocator"* %0) #1 !dbg !476 {
  ret void, !dbg !478
}

define linkonce_odr void @_ZNSt12_Vector_baseIiSaIiEE17_Vector_impl_dataC1Ev(%"struct.std::_Vector_base<int, std::allocator<int>>::_Vector_impl_data"* %0) #1 !dbg !480 {
  %2 = getelementptr %"struct.std::_Vector_base<int, std::allocator<int>>::_Vector_impl_data", %"struct.std::_Vector_base<int, std::allocator<int>>::_Vector_impl_data"* %0, i32 0, i32 0, !dbg !481
  store i32* null, i32** %2, align 8, !dbg !481
  %3 = getelementptr %"struct.std::_Vector_base<int, std::allocator<int>>::_Vector_impl_data", %"struct.std::_Vector_base<int, std::allocator<int>>::_Vector_impl_data"* %0, i32 0, i32 1, !dbg !481
  store i32* null, i32** %3, align 8, !dbg !481
  %4 = getelementptr %"struct.std::_Vector_base<int, std::allocator<int>>::_Vector_impl_data", %"struct.std::_Vector_base<int, std::allocator<int>>::_Vector_impl_data"* %0, i32 0, i32 2, !dbg !481
  store i32* null, i32** %4, align 8, !dbg !481
  ret void, !dbg !483
}

define linkonce_odr i64 @_ZNSt16allocator_traitsISaIiEE8max_sizeERKS0_(%"class.std::allocator"* %0) #1 !dbg !484 {
  ret i64 2305843009213693951, !dbg !485
}

define linkonce_odr i64* @_ZSt3minImERKT_S2_S2_(i64* %0, i64* %1) #1 !dbg !487 {
  %3 = load i64, i64* %1, align 8, !dbg !489
  %4 = load i64, i64* %0, align 8, !dbg !491
  %5 = icmp slt i64 %3, %4, !dbg !492
  %6 = select i1 %5, i64* %1, i64* %0, !dbg !493
  ret i64* %6, !dbg !494
}

define linkonce_odr i32* @_ZN9__gnu_cxx13new_allocatorIiE8allocateEmPKv(%"class.__gnu_cxx::new_allocator"* %0, i64 %1, i8* %2) #1 !dbg !495 {
  %4 = icmp sgt i64 %1, 2305843009213693951, !dbg !496
  br i1 %4, label %5, label %6, !dbg !498

5:                                                ; preds = %3
  call void @_ZSt17__throw_bad_allocv(), !dbg !499
  br label %6, !dbg !498

6:                                                ; preds = %5, %3
  %7 = mul i64 %1, 4, !dbg !500
  %8 = call i8* @_Znwm(i64 %7), !dbg !501
  %9 = bitcast i8* %8 to i32*, !dbg !502
  ret i32* %9, !dbg !503
}

define linkonce_odr i32* @_ZSt12__relocate_aIPiS0_SaIiEET0_T_S3_S2_RT1_(i32* %0, i32* %1, i32* %2, %"class.std::allocator"* %3) #1 !dbg !504 {
  %5 = call i32* @_ZSt14__relocate_a_1IiiENSt9enable_ifIXsr3std24__is_bitwise_relocatableIT_EE5valueEPS1_E4typeES2_S2_S2_RSaIT0_E(i32* %0, i32* %1, i32* %2, %"class.std::allocator"* %3), !dbg !505
  ret i32* %5, !dbg !507
}

define linkonce_odr i32* @_ZSt18uninitialized_copyISt13move_iteratorIPiES1_ET0_T_S4_S3_(%"class.std::move_iterator" %0, %"class.std::move_iterator" %1, i32* %2) #1 !dbg !508 {
  %4 = alloca %"class.std::move_iterator", i64 1, align 8
  %5 = alloca %"class.std::move_iterator", i64 1, align 8
  %6 = alloca %"class.std::move_iterator", i64 1, align 8, !dbg !509
  %7 = alloca %"class.std::move_iterator", i64 1, align 8, !dbg !511
  store %"class.std::move_iterator" %0, %"class.std::move_iterator"* %7, align 8, !dbg !511
  store %"class.std::move_iterator" %1, %"class.std::move_iterator"* %6, align 8, !dbg !509
  call void @_ZNSt13move_iteratorIPiEC1ERKS1_(%"class.std::move_iterator"* %5, %"class.std::move_iterator"* %7), !dbg !512
  call void @_ZNSt13move_iteratorIPiEC1ERKS1_(%"class.std::move_iterator"* %4, %"class.std::move_iterator"* %6), !dbg !513
  %8 = load %"class.std::move_iterator", %"class.std::move_iterator"* %5, align 8, !dbg !514
  %9 = load %"class.std::move_iterator", %"class.std::move_iterator"* %4, align 8, !dbg !514
  %10 = call i32* @_ZNSt20__uninitialized_copyILb1EE13__uninit_copyISt13move_iteratorIPiES3_EET0_T_S6_S5_(%"class.std::move_iterator" %8, %"class.std::move_iterator" %9, i32* %2), !dbg !514
  ret i32* %10, !dbg !515
}

define linkonce_odr void @_ZNSt12_Destroy_auxILb1EE9__destroyIPiEEvT_S3_(i32* %0, i32* %1) #1 !dbg !516 {
  ret void, !dbg !517
}

define linkonce_odr void @_ZN9__gnu_cxx13new_allocatorIiE10deallocateEPim(%"class.__gnu_cxx::new_allocator"* %0, i32* %1, i64 %2) #1 !dbg !519 {
  %4 = bitcast i32* %1 to i8*, !dbg !520
  call void @_ZdlPv(i8* %4), !dbg !522
  ret void, !dbg !523
}

define linkonce_odr i64* @_ZSt3maxImERKT_S2_S2_(i64* %0, i64* %1) #1 !dbg !524 {
  %3 = load i64, i64* %0, align 8, !dbg !525
  %4 = load i64, i64* %1, align 8, !dbg !527
  %5 = icmp slt i64 %3, %4, !dbg !528
  %6 = select i1 %5, i64* %1, i64* %0, !dbg !529
  ret i64* %6, !dbg !530
}

define linkonce_odr void @_ZN9__gnu_cxx13new_allocatorIiEC1Ev(%"class.__gnu_cxx::new_allocator"* %0) #1 !dbg !531 {
  ret void, !dbg !532
}

define linkonce_odr i64 @_ZNK9__gnu_cxx13new_allocatorIiE8max_sizeEv(%"class.__gnu_cxx::new_allocator"* %0) #1 !dbg !534 {
  ret i64 2305843009213693951, !dbg !535
}

declare void @_ZSt17__throw_bad_allocv() #1

declare i8* @_Znwm(i64) #1

define linkonce_odr i32* @_ZSt14__relocate_a_1IiiENSt9enable_ifIXsr3std24__is_bitwise_relocatableIT_EE5valueEPS1_E4typeES2_S2_S2_RSaIT0_E(i32* %0, i32* %1, i32* %2, %"class.std::allocator"* %3) #1 !dbg !537 {
  %5 = ptrtoint i32* %0 to i64, !dbg !538
  %6 = ptrtoint i32* %1 to i64, !dbg !538
  %7 = sub i64 %6, %5, !dbg !538
  %8 = sdiv i64 %7, 4, !dbg !538
  %9 = icmp sgt i64 %8, 0, !dbg !540
  br i1 %9, label %10, label %14, !dbg !541

10:                                               ; preds = %4
  %11 = bitcast i32* %2 to i8*, !dbg !542
  %12 = bitcast i32* %0 to i8*, !dbg !543
  %13 = mul i64 %8, 4, !dbg !544
  call void @llvm.memmove.p0i8.p0i8.i64(i8* %11, i8* %12, i64 %13, i1 false), !dbg !545
  br label %14, !dbg !541

14:                                               ; preds = %10, %4
  %15 = getelementptr i32, i32* %2, i64 %8, !dbg !546
  ret i32* %15, !dbg !547
}

define linkonce_odr i32* @_ZSt12__niter_baseIPiET_S1_(i32* %0) #1 !dbg !548 {
  ret i32* %0, !dbg !549
}

define linkonce_odr i32* @_ZNSt20__uninitialized_copyILb1EE13__uninit_copyISt13move_iteratorIPiES3_EET0_T_S6_S5_(%"class.std::move_iterator" %0, %"class.std::move_iterator" %1, i32* %2) #1 !dbg !551 {
  %4 = alloca %"class.std::move_iterator", i64 1, align 8
  %5 = alloca %"class.std::move_iterator", i64 1, align 8
  %6 = alloca %"class.std::move_iterator", i64 1, align 8, !dbg !552
  %7 = alloca %"class.std::move_iterator", i64 1, align 8, !dbg !554
  store %"class.std::move_iterator" %0, %"class.std::move_iterator"* %7, align 8, !dbg !554
  store %"class.std::move_iterator" %1, %"class.std::move_iterator"* %6, align 8, !dbg !552
  call void @_ZNSt13move_iteratorIPiEC1ERKS1_(%"class.std::move_iterator"* %5, %"class.std::move_iterator"* %7), !dbg !555
  call void @_ZNSt13move_iteratorIPiEC1ERKS1_(%"class.std::move_iterator"* %4, %"class.std::move_iterator"* %6), !dbg !556
  %8 = load %"class.std::move_iterator", %"class.std::move_iterator"* %5, align 8, !dbg !557
  %9 = load %"class.std::move_iterator", %"class.std::move_iterator"* %4, align 8, !dbg !557
  %10 = call i32* @_ZSt4copyISt13move_iteratorIPiES1_ET0_T_S4_S3_(%"class.std::move_iterator" %8, %"class.std::move_iterator" %9, i32* %2), !dbg !557
  ret i32* %10, !dbg !558
}

declare void @_ZdlPv(i8*) #1

define linkonce_odr i32* @_ZSt4copyISt13move_iteratorIPiES1_ET0_T_S4_S3_(%"class.std::move_iterator" %0, %"class.std::move_iterator" %1, i32* %2) #1 !dbg !559 {
  %4 = alloca %"class.std::move_iterator", i64 1, align 8
  %5 = alloca %"class.std::move_iterator", i64 1, align 8
  %6 = alloca %"class.std::move_iterator", i64 1, align 8, !dbg !560
  %7 = alloca %"class.std::move_iterator", i64 1, align 8, !dbg !562
  store %"class.std::move_iterator" %0, %"class.std::move_iterator"* %7, align 8, !dbg !562
  store %"class.std::move_iterator" %1, %"class.std::move_iterator"* %6, align 8, !dbg !560
  call void @_ZNSt13move_iteratorIPiEC1ERKS1_(%"class.std::move_iterator"* %5, %"class.std::move_iterator"* %7), !dbg !563
  %8 = load %"class.std::move_iterator", %"class.std::move_iterator"* %5, align 8, !dbg !564
  %9 = call i32* @_ZSt12__miter_baseIPiEDTcl12__miter_basecldtfp_4baseEEESt13move_iteratorIT_E(%"class.std::move_iterator" %8), !dbg !564
  call void @_ZNSt13move_iteratorIPiEC1ERKS1_(%"class.std::move_iterator"* %4, %"class.std::move_iterator"* %6), !dbg !565
  %10 = load %"class.std::move_iterator", %"class.std::move_iterator"* %4, align 8, !dbg !566
  %11 = call i32* @_ZSt12__miter_baseIPiEDTcl12__miter_basecldtfp_4baseEEESt13move_iteratorIT_E(%"class.std::move_iterator" %10), !dbg !566
  %12 = call i32* @_ZSt14__copy_move_a2ILb1EPiS0_ET1_T0_S2_S1_(i32* %9, i32* %11, i32* %2), !dbg !567
  ret i32* %12, !dbg !568
}

define linkonce_odr i32* @_ZSt14__copy_move_a2ILb1EPiS0_ET1_T0_S2_S1_(i32* %0, i32* %1, i32* %2) #1 !dbg !569 {
  %4 = call i32* @_ZNSt11__copy_moveILb1ELb1ESt26random_access_iterator_tagE8__copy_mIiEEPT_PKS3_S6_S4_(i32* %0, i32* %1, i32* %2), !dbg !570
  ret i32* %4, !dbg !573
}

define linkonce_odr i32* @_ZSt12__miter_baseIPiEDTcl12__miter_basecldtfp_4baseEEESt13move_iteratorIT_E(%"class.std::move_iterator" %0) #1 !dbg !574 {
  %2 = alloca %"class.std::move_iterator", i64 1, align 8, !dbg !575
  store %"class.std::move_iterator" %0, %"class.std::move_iterator"* %2, align 8, !dbg !575
  %3 = call i32* @_ZNKSt13move_iteratorIPiE4baseEv(%"class.std::move_iterator"* %2), !dbg !577
  ret i32* %3, !dbg !578
}

define linkonce_odr i32* @_ZSt12__niter_wrapIPiET_RKS1_S1_(i32** %0, i32* %1) #1 !dbg !579 {
  ret i32* %1, !dbg !580
}

define linkonce_odr i32* @_ZSt13__copy_move_aILb1EPiS0_ET1_T0_S2_S1_(i32* %0, i32* %1, i32* %2) #1 !dbg !582 {
  %4 = call i32* @_ZNSt11__copy_moveILb1ELb1ESt26random_access_iterator_tagE8__copy_mIiEEPT_PKS3_S6_S4_(i32* %0, i32* %1, i32* %2), !dbg !583
  ret i32* %4, !dbg !585
}

define linkonce_odr i32* @_ZSt12__miter_baseIPiET_S1_(i32* %0) #1 !dbg !586 {
  ret i32* %0, !dbg !588
}

define linkonce_odr i32* @_ZNKSt13move_iteratorIPiE4baseEv(%"class.std::move_iterator"* %0) #1 !dbg !590 {
  %2 = getelementptr %"class.std::move_iterator", %"class.std::move_iterator"* %0, i32 0, i32 0, !dbg !591
  %3 = load i32*, i32** %2, align 8, !dbg !591
  ret i32* %3, !dbg !593
}

define linkonce_odr i32* @_ZNSt11__copy_moveILb1ELb1ESt26random_access_iterator_tagE8__copy_mIiEEPT_PKS3_S6_S4_(i32* %0, i32* %1, i32* %2) #1 !dbg !594 {
  %4 = ptrtoint i32* %0 to i64, !dbg !595
  %5 = ptrtoint i32* %1 to i64, !dbg !595
  %6 = sub i64 %5, %4, !dbg !595
  %7 = sdiv i64 %6, 4, !dbg !595
  %8 = icmp ne i64 %7, 0, !dbg !597
  br i1 %8, label %9, label %13, !dbg !598

9:                                                ; preds = %3
  %10 = bitcast i32* %2 to i8*, !dbg !599
  %11 = bitcast i32* %0 to i8*, !dbg !600
  %12 = mul i64 %7, 4, !dbg !601
  call void @llvm.memmove.p0i8.p0i8.i64(i8* %10, i8* %11, i64 %12, i1 false), !dbg !602
  br label %13, !dbg !598

13:                                               ; preds = %9, %3
  %14 = getelementptr i32, i32* %2, i64 %7, !dbg !603
  ret i32* %14, !dbg !604
}

; Function Attrs: argmemonly nocallback nofree nounwind willreturn writeonly
declare void @llvm.memset.p0i8.i64(i8* nocapture writeonly, i8, i64, i1 immarg) #2

; Function Attrs: argmemonly nocallback nofree nounwind willreturn
declare void @llvm.memmove.p0i8.p0i8.i64(i8* nocapture writeonly, i8* nocapture readonly, i64, i1 immarg) #3

attributes #0 = { inaccessiblememonly mustprogress nofree nounwind willreturn "target-cpu"="x86-64" "target-features"="+cx8,+fxsr,+mmx,+sse,+sse2,+x87" "tune-cpu"="generic" }
attributes #1 = { "target-cpu"="x86-64" "target-features"="+cx8,+fxsr,+mmx,+sse,+sse2,+x87" "tune-cpu"="generic" }
attributes #2 = { argmemonly nocallback nofree nounwind willreturn writeonly "target-cpu"="x86-64" "target-features"="+cx8,+fxsr,+mmx,+sse,+sse2,+x87" "tune-cpu"="generic" }
attributes #3 = { argmemonly nocallback nofree nounwind willreturn "target-cpu"="x86-64" "target-features"="+cx8,+fxsr,+mmx,+sse,+sse2,+x87" "tune-cpu"="generic" }

!llvm.dbg.cu = !{!0}
!llvm.module.flags = !{!2}

!0 = distinct !DICompileUnit(language: DW_LANG_C, file: !1, producer: "mlir", isOptimized: true, runtimeVersion: 0, emissionKind: FullDebug)
!1 = !DIFile(filename: "LLVMDialectModule", directory: "/")
!2 = !{i32 2, !"Debug Info Version", i32 3}
!3 = distinct !DISubprogram(name: "main", linkageName: "main", scope: null, file: !4, line: 31, type: !5, scopeLine: 31, spFlags: DISPFlagDefinition | DISPFlagOptimized, unit: !0, retainedNodes: !6)
!4 = !DIFile(filename: "app/main_stepall.cc", directory: "/home/wuklab/AIFM/aifm/DataFrame/original")
!5 = !DISubroutineType(types: !6)
!6 = !{}
!7 = !DILocation(line: 32, column: 5, scope: !8)
!8 = !DILexicalBlockFile(scope: !3, file: !4, discriminator: 0)
!9 = !DILocation(line: 32, column: 56, scope: !8)
!10 = !DILocation(line: 33, column: 18, scope: !8)
!11 = !DILocation(line: 34, column: 16, scope: !8)
!12 = !DILocation(line: 34, column: 14, scope: !8)
!13 = !DILocation(line: 35, column: 5, scope: !8)
!14 = !DILocation(line: 36, column: 5, scope: !8)
!15 = !DILocation(line: 36, column: 16, scope: !8)
!16 = !DILocation(line: 36, column: 14, scope: !8)
!17 = !DILocation(line: 38, column: 72, scope: !8)
!18 = !DILocation(line: 38, column: 63, scope: !8)
!19 = !DILocation(line: 38, column: 9, scope: !8)
!20 = !DILocation(line: 39, column: 10, scope: !8)
!21 = !DILocation(line: 37, column: 5, scope: !8)
!22 = !DILocation(line: 40, column: 1, scope: !8)
!23 = distinct !DISubprogram(name: "_ZNSt6chrono10time_pointINS_3_V212steady_clockENS_8durationIlSt5ratioILl1ELl1000000000EEEEEC1Ev", linkageName: "_ZNSt6chrono10time_pointINS_3_V212steady_clockENS_8durationIlSt5ratioILl1ELl1000000000EEEEEC1Ev", scope: null, file: !24, line: 633, type: !5, scopeLine: 633, spFlags: DISPFlagDefinition | DISPFlagOptimized, unit: !0, retainedNodes: !6)
!24 = !DIFile(filename: "/../lib/gcc/x86_64-linux-gnu/9/../../../../include/c++/9/chrono", directory: "")
!25 = !DILocation(line: 633, column: 31, scope: !26)
!26 = !DILexicalBlockFile(scope: !23, file: !24, discriminator: 0)
!27 = !DILocation(line: 633, column: 27, scope: !26)
!28 = !DILocation(line: 633, column: 2, scope: !26)
!29 = !DILocation(line: 634, column: 4, scope: !26)
!30 = distinct !DISubprogram(name: "_ZNSt6chrono10time_pointINS_3_V212steady_clockENS_8durationIlSt5ratioILl1ELl1000000000EEEEEaSEOS7_", linkageName: "_ZNSt6chrono10time_pointINS_3_V212steady_clockENS_8durationIlSt5ratioILl1ELl1000000000EEEEEaSEOS7_", scope: null, file: !24, line: 626, type: !5, scopeLine: 626, spFlags: DISPFlagDefinition | DISPFlagOptimized, unit: !0, retainedNodes: !6)
!31 = !DILocation(line: 626, column: 14, scope: !32)
!32 = !DILexicalBlockFile(scope: !30, file: !24, discriminator: 0)
!33 = distinct !DISubprogram(name: "_Z34print_number_vendor_ids_and_uniquev", linkageName: "_Z34print_number_vendor_ids_and_uniquev", scope: null, file: !4, line: 23, type: !5, scopeLine: 23, spFlags: DISPFlagDefinition | DISPFlagOptimized, unit: !0, retainedNodes: !6)
!34 = !DILocation(line: 24, column: 5, scope: !35)
!35 = !DILexicalBlockFile(scope: !33, file: !4, discriminator: 0)
!36 = !DILocation(line: 26, column: 9, scope: !35)
!37 = !DILocation(line: 26, column: 37, scope: !35)
!38 = !DILocation(line: 25, column: 5, scope: !35)
!39 = !DILocation(line: 28, column: 31, scope: !35)
!40 = !DILocation(line: 28, column: 9, scope: !35)
!41 = !DILocation(line: 27, column: 5, scope: !35)
!42 = !DILocation(line: 29, column: 1, scope: !35)
!43 = distinct !DISubprogram(name: "_ZNKSt6chrono8durationIlSt5ratioILl1ELl1000000EEE5countEv", linkageName: "_ZNKSt6chrono8durationIlSt5ratioILl1ELl1000000EEE5countEv", scope: null, file: !24, line: 346, type: !5, scopeLine: 346, spFlags: DISPFlagDefinition | DISPFlagOptimized, unit: !0, retainedNodes: !6)
!44 = !DILocation(line: 347, column: 11, scope: !45)
!45 = !DILexicalBlockFile(scope: !43, file: !24, discriminator: 0)
!46 = !DILocation(line: 347, column: 16, scope: !45)
!47 = distinct !DISubprogram(name: "_ZNSt6chrono13duration_castINS_8durationIlSt5ratioILl1ELl1000000EEEElS2_ILl1ELl1000000000EEEENSt9enable_ifIXsr13__is_durationIT_EE5valueES7_E4typeERKNS1_IT0_T1_EE", linkageName: "_ZNSt6chrono13duration_castINS_8durationIlSt5ratioILl1ELl1000000EEEElS2_ILl1ELl1000000000EEEENSt9enable_ifIXsr13__is_durationIT_EE5valueES7_E4typeERKNS1_IT0_T1_EE", scope: null, file: !24, line: 191, type: !5, scopeLine: 191, spFlags: DISPFlagDefinition | DISPFlagOptimized, unit: !0, retainedNodes: !6)
!48 = !DILocation(line: 200, column: 9, scope: !49)
!49 = !DILexicalBlockFile(scope: !47, file: !24, discriminator: 0)
!50 = !DILocation(line: 200, column: 2, scope: !49)
!51 = !DILocation(line: 201, column: 7, scope: !49)
!52 = distinct !DISubprogram(name: "_ZNSt6chronomiINS_3_V212steady_clockENS_8durationIlSt5ratioILl1ELl1000000000EEEES6_EENSt11common_typeIJT0_T1_EE4typeERKNS_10time_pointIT_S8_EERKNSC_ISD_S9_EE", linkageName: "_ZNSt6chronomiINS_3_V212steady_clockENS_8durationIlSt5ratioILl1ELl1000000000EEEES6_EENSt11common_typeIJT0_T1_EE4typeERKNS_10time_pointIT_S8_EERKNSC_ISD_S9_EE", scope: null, file: !24, line: 762, type: !5, scopeLine: 762, spFlags: DISPFlagDefinition | DISPFlagOptimized, unit: !0, retainedNodes: !6)
!53 = !DILocation(line: 764, column: 22, scope: !54)
!54 = !DILexicalBlockFile(scope: !52, file: !24, discriminator: 0)
!55 = !DILocation(line: 764, column: 16, scope: !54)
!56 = !DILocation(line: 764, column: 49, scope: !54)
!57 = !DILocation(line: 764, column: 43, scope: !54)
!58 = !DILocation(line: 764, column: 41, scope: !54)
!59 = !DILocation(line: 764, column: 9, scope: !54)
!60 = !DILocation(line: 764, column: 69, scope: !54)
!61 = distinct !DISubprogram(name: "_ZNSt6chrono8durationIlSt5ratioILl1ELl1000000000EEEC1ERKS3_", linkageName: "_ZNSt6chrono8durationIlSt5ratioILl1ELl1000000000EEEC1ERKS3_", scope: null, file: !24, line: 324, type: !5, scopeLine: 324, spFlags: DISPFlagDefinition | DISPFlagOptimized, unit: !0, retainedNodes: !6)
!62 = !DILocation(line: 324, column: 2, scope: !63)
!63 = !DILexicalBlockFile(scope: !61, file: !24, discriminator: 0)
!64 = !DILocation(line: 324, column: 36, scope: !63)
!65 = distinct !DISubprogram(name: "_ZNSt6chrono8durationIlSt5ratioILl1ELl1000000000EEE4zeroEv", linkageName: "_ZNSt6chrono8durationIlSt5ratioILl1ELl1000000000EEE4zeroEv", scope: null, file: !24, line: 431, type: !5, scopeLine: 431, spFlags: DISPFlagDefinition | DISPFlagOptimized, unit: !0, retainedNodes: !6)
!66 = !DILocation(line: 432, column: 20, scope: !67)
!67 = !DILexicalBlockFile(scope: !65, file: !24, discriminator: 0)
!68 = !DILocation(line: 432, column: 11, scope: !67)
!69 = !DILocation(line: 432, column: 4, scope: !67)
!70 = !DILocation(line: 432, column: 51, scope: !67)
!71 = distinct !DISubprogram(name: "_ZNSt6chrono8durationIlSt5ratioILl1ELl1000000000EEEaSERKS3_", linkageName: "_ZNSt6chrono8durationIlSt5ratioILl1ELl1000000000EEEaSERKS3_", scope: null, file: !24, line: 342, type: !5, scopeLine: 342, spFlags: DISPFlagDefinition | DISPFlagOptimized, unit: !0, retainedNodes: !6)
!72 = !DILocation(line: 342, column: 47, scope: !73)
!73 = !DILexicalBlockFile(scope: !71, file: !24, discriminator: 0)
!74 = distinct !DISubprogram(name: "_ZNKSt6vectorIiSaIiEE4sizeEv", linkageName: "_ZNKSt6vectorIiSaIiEE4sizeEv", scope: null, file: !75, line: 915, type: !5, scopeLine: 915, spFlags: DISPFlagDefinition | DISPFlagOptimized, unit: !0, retainedNodes: !6)
!75 = !DIFile(filename: "/../lib/gcc/x86_64-linux-gnu/9/../../../../include/c++/9/bits/stl_vector.h", directory: "")
!76 = !DILocation(line: 916, column: 26, scope: !77)
!77 = !DILexicalBlockFile(scope: !74, file: !75, discriminator: 0)
!78 = !DILocation(line: 916, column: 32, scope: !77)
!79 = !DILocation(line: 916, column: 40, scope: !77)
!80 = !DILocation(line: 916, column: 66, scope: !77)
!81 = !DILocation(line: 916, column: 52, scope: !77)
!82 = !DILocation(line: 916, column: 50, scope: !77)
!83 = !DILocation(line: 916, column: 77, scope: !77)
!84 = distinct !DISubprogram(name: "_Z21get_col_unique_valuesIiEmRKSt6vectorIT_SaIS1_EE", linkageName: "_Z21get_col_unique_valuesIiEmRKSt6vectorIT_SaIS1_EE", scope: null, file: !4, line: 8, type: !5, scopeLine: 8, spFlags: DISPFlagDefinition | DISPFlagOptimized, unit: !0, retainedNodes: !6)
!85 = !DILocation(line: 15, column: 9, scope: !86)
!86 = !DILexicalBlockFile(scope: !84, file: !4, discriminator: 0)
!87 = !DILocation(line: 11, column: 5, scope: !86)
!88 = !DILocation(line: 9, column: 20, scope: !86)
!89 = !DILocation(line: 11, column: 33, scope: !86)
!90 = !DILocation(line: 12, column: 12, scope: !86)
!91 = !DILocation(line: 14, column: 26, scope: !86)
!92 = !DILocation(line: 15, column: 15, scope: !86)
!93 = !DILocation(line: 16, column: 13, scope: !86)
!94 = !DILocation(line: 16, column: 9, scope: !86)
!95 = !DILocation(line: 17, column: 20, scope: !86)
!96 = !DILocation(line: 20, column: 19, scope: !86)
!97 = !DILocation(line: 21, column: 1, scope: !86)
!98 = distinct !DISubprogram(name: "_ZNSt6chrono8durationIlSt5ratioILl1ELl1000000EEEC1ERKS3_", linkageName: "_ZNSt6chrono8durationIlSt5ratioILl1ELl1000000EEEC1ERKS3_", scope: null, file: !24, line: 324, type: !5, scopeLine: 324, spFlags: DISPFlagDefinition | DISPFlagOptimized, unit: !0, retainedNodes: !6)
!99 = !DILocation(line: 324, column: 2, scope: !100)
!100 = !DILexicalBlockFile(scope: !98, file: !24, discriminator: 0)
!101 = !DILocation(line: 324, column: 36, scope: !100)
!102 = distinct !DISubprogram(name: "_ZNSt6chrono20__duration_cast_implINS_8durationIlSt5ratioILl1ELl1000000EEEES2_ILl1ELl1000EElLb1ELb0EE6__castIlS2_ILl1ELl1000000000EEEES4_RKNS1_IT_T0_EE", linkageName: "_ZNSt6chrono20__duration_cast_implINS_8durationIlSt5ratioILl1ELl1000000EEEES2_ILl1ELl1000EElLb1ELb0EE6__castIlS2_ILl1ELl1000000000EEEES4_RKNS1_IT_T0_EE", scope: null, file: !24, line: 149, type: !5, scopeLine: 149, spFlags: DISPFlagDefinition | DISPFlagOptimized, unit: !0, retainedNodes: !6)
!103 = !DILocation(line: 153, column: 29, scope: !104)
!104 = !DILexicalBlockFile(scope: !102, file: !24, discriminator: 0)
!105 = !DILocation(line: 153, column: 38, scope: !104)
!106 = !DILocation(line: 152, column: 20, scope: !104)
!107 = !DILocation(line: 152, column: 13, scope: !104)
!108 = !DILocation(line: 152, column: 6, scope: !104)
!109 = !DILocation(line: 154, column: 4, scope: !104)
!110 = distinct !DISubprogram(name: "_ZNSt6chronomiIlSt5ratioILl1ELl1000000000EElS2_EENSt11common_typeIJNS_8durationIT_T0_EENS4_IT1_T2_EEEE4typeERKS7_RKSA_", linkageName: "_ZNSt6chronomiIlSt5ratioILl1ELl1000000000EElS2_EENSt11common_typeIJNS_8durationIT_T0_EENS4_IT1_T2_EEEE4typeERKS7_RKSA_", scope: null, file: !24, line: 463, type: !5, scopeLine: 463, spFlags: DISPFlagDefinition | DISPFlagOptimized, unit: !0, retainedNodes: !6)
!111 = !DILocation(line: 469, column: 14, scope: !112)
!112 = !DILexicalBlockFile(scope: !110, file: !24, discriminator: 0)
!113 = !DILocation(line: 469, column: 26, scope: !112)
!114 = !DILocation(line: 469, column: 36, scope: !112)
!115 = !DILocation(line: 469, column: 48, scope: !112)
!116 = !DILocation(line: 469, column: 34, scope: !112)
!117 = !DILocation(line: 469, column: 9, scope: !112)
!118 = !DILocation(line: 469, column: 2, scope: !112)
!119 = !DILocation(line: 470, column: 7, scope: !112)
!120 = distinct !DISubprogram(name: "_ZNKSt6chrono10time_pointINS_3_V212steady_clockENS_8durationIlSt5ratioILl1ELl1000000000EEEEE16time_since_epochEv", linkageName: "_ZNKSt6chrono10time_pointINS_3_V212steady_clockENS_8durationIlSt5ratioILl1ELl1000000000EEEEE16time_since_epochEv", scope: null, file: !24, line: 649, type: !5, scopeLine: 649, spFlags: DISPFlagDefinition | DISPFlagOptimized, unit: !0, retainedNodes: !6)
!121 = !DILocation(line: 650, column: 11, scope: !122)
!122 = !DILexicalBlockFile(scope: !120, file: !24, discriminator: 0)
!123 = !DILocation(line: 650, column: 4, scope: !122)
!124 = !DILocation(line: 650, column: 16, scope: !122)
!125 = distinct !DISubprogram(name: "_ZNSt6chrono8durationIlSt5ratioILl1ELl1000000000EEEC1IlvEERKT_", linkageName: "_ZNSt6chrono8durationIlSt5ratioILl1ELl1000000000EEEC1IlvEERKT_", scope: null, file: !24, line: 331, type: !5, scopeLine: 331, spFlags: DISPFlagDefinition | DISPFlagOptimized, unit: !0, retainedNodes: !6)
!126 = !DILocation(line: 332, column: 27, scope: !127)
!127 = !DILexicalBlockFile(scope: !125, file: !24, discriminator: 0)
!128 = !DILocation(line: 331, column: 4, scope: !127)
!129 = !DILocation(line: 332, column: 37, scope: !127)
!130 = distinct !DISubprogram(name: "_ZNSt6chrono15duration_valuesIlE4zeroEv", linkageName: "_ZNSt6chrono15duration_valuesIlE4zeroEv", scope: null, file: !24, line: 276, type: !5, scopeLine: 276, spFlags: DISPFlagDefinition | DISPFlagOptimized, unit: !0, retainedNodes: !6)
!131 = !DILocation(line: 277, column: 20, scope: !132)
!132 = !DILexicalBlockFile(scope: !130, file: !24, discriminator: 0)
!133 = distinct !DISubprogram(name: "_ZNSt6vectorIiSaIiEEC1Ev", linkageName: "_ZNSt6vectorIiSaIiEEC1Ev", scope: null, file: !75, line: 484, type: !5, scopeLine: 484, spFlags: DISPFlagDefinition | DISPFlagOptimized, unit: !0, retainedNodes: !6)
!134 = !DILocation(line: 484, column: 7, scope: !135)
!135 = !DILexicalBlockFile(scope: !133, file: !75, discriminator: 0)
!136 = !DILocation(line: 484, column: 24, scope: !135)
!137 = distinct !DISubprogram(name: "_ZNSt6vectorIiSaIiEE7reserveEm", linkageName: "_ZNSt6vectorIiSaIiEE7reserveEm", scope: null, file: !75, line: 1025, type: !5, scopeLine: 1025, spFlags: DISPFlagDefinition | DISPFlagOptimized, unit: !0, retainedNodes: !6)
!138 = !DILocation(line: 69, column: 23, scope: !139)
!139 = !DILexicalBlockFile(scope: !137, file: !140, discriminator: 0)
!140 = !DIFile(filename: "/../lib/gcc/x86_64-linux-gnu/9/../../../../include/c++/9/bits/vector.tcc", directory: "")
!141 = !DILocation(line: 69, column: 15, scope: !139)
!142 = !DILocation(line: 69, column: 7, scope: !139)
!143 = !DILocation(line: 70, column: 2, scope: !139)
!144 = !DILocation(line: 71, column: 17, scope: !139)
!145 = !DILocation(line: 71, column: 28, scope: !139)
!146 = !DILocation(line: 71, column: 7, scope: !139)
!147 = !DILocation(line: 73, column: 33, scope: !139)
!148 = !DILocation(line: 76, column: 29, scope: !139)
!149 = !DILocation(line: 76, column: 4, scope: !139)
!150 = !DILocation(line: 78, column: 16, scope: !139)
!151 = !DILocation(line: 78, column: 22, scope: !139)
!152 = !DILocation(line: 79, column: 26, scope: !139)
!153 = !DILocation(line: 79, column: 20, scope: !139)
!154 = !DILocation(line: 79, column: 34, scope: !139)
!155 = !DILocation(line: 79, column: 58, scope: !139)
!156 = !DILocation(line: 79, column: 44, scope: !139)
!157 = !DILocation(line: 80, column: 13, scope: !139)
!158 = !DILocation(line: 964, column: 14, scope: !159, inlinedAt: !161)
!159 = !DILexicalBlockFile(scope: !137, file: !160, discriminator: 0)
!160 = !DIFile(filename: "/../lib/gcc/x86_64-linux-gnu/9/../../../../include/c++/9/bits/stl_uninitialized.h", directory: "")
!161 = !DILocation(line: 453, column: 9, scope: !162, inlinedAt: !163)
!162 = !DILexicalBlockFile(scope: !137, file: !75, discriminator: 0)
!163 = !DILocation(line: 466, column: 9, scope: !162, inlinedAt: !164)
!164 = !DILocation(line: 79, column: 8, scope: !139)
!165 = !DILocation(line: 86, column: 43, scope: !139)
!166 = !DILocation(line: 86, column: 49, scope: !139)
!167 = !DILocation(line: 86, column: 57, scope: !139)
!168 = !DILocation(line: 1265, column: 3, scope: !169)
!169 = !DILexicalBlockFile(scope: !137, file: !170, discriminator: 0)
!170 = !DIFile(filename: "/../lib/gcc/x86_64-linux-gnu/9/../../../../include/c++/9/bits/stl_iterator.h", directory: "")
!171 = !DILocation(line: 87, column: 57, scope: !139)
!172 = !DILocation(line: 87, column: 43, scope: !139)
!173 = !DILocation(line: 85, column: 16, scope: !139)
!174 = !DILocation(line: 89, column: 8, scope: !139)
!175 = !DILocation(line: 92, column: 4, scope: !139)
!176 = !DILocation(line: 92, column: 24, scope: !139)
!177 = !DILocation(line: 92, column: 18, scope: !139)
!178 = !DILocation(line: 92, column: 32, scope: !139)
!179 = !DILocation(line: 93, column: 18, scope: !139)
!180 = !DILocation(line: 93, column: 4, scope: !139)
!181 = !DILocation(line: 94, column: 4, scope: !139)
!182 = !DILocation(line: 95, column: 27, scope: !139)
!183 = !DILocation(line: 96, column: 18, scope: !139)
!184 = !DILocation(line: 96, column: 36, scope: !139)
!185 = !DILocation(line: 96, column: 28, scope: !139)
!186 = !DILocation(line: 97, column: 38, scope: !139)
!187 = !DILocation(line: 97, column: 61, scope: !139)
!188 = !DILocation(line: 97, column: 36, scope: !139)
!189 = !DILocation(line: 99, column: 5, scope: !139)
!190 = distinct !DISubprogram(name: "_ZNKSt6vectorIiSaIiEEixEm", linkageName: "_ZNKSt6vectorIiSaIiEEixEm", scope: null, file: !75, line: 1058, type: !5, scopeLine: 1058, spFlags: DISPFlagDefinition | DISPFlagOptimized, unit: !0, retainedNodes: !6)
!191 = !DILocation(line: 1061, column: 11, scope: !192)
!192 = !DILexicalBlockFile(scope: !190, file: !75, discriminator: 0)
!193 = !DILocation(line: 1061, column: 17, scope: !192)
!194 = !DILocation(line: 1061, column: 25, scope: !192)
!195 = !DILocation(line: 1061, column: 34, scope: !192)
!196 = !DILocation(line: 1062, column: 7, scope: !192)
!197 = distinct !DISubprogram(name: "_ZNSt6vectorIiSaIiEE9push_backERKi", linkageName: "_ZNSt6vectorIiSaIiEE9push_backERKi", scope: null, file: !75, line: 1184, type: !5, scopeLine: 1184, spFlags: DISPFlagDefinition | DISPFlagOptimized, unit: !0, retainedNodes: !6)
!198 = !DILocation(line: 1186, column: 6, scope: !199)
!199 = !DILexicalBlockFile(scope: !197, file: !75, discriminator: 0)
!200 = !DILocation(line: 1186, column: 12, scope: !199)
!201 = !DILocation(line: 1186, column: 20, scope: !199)
!202 = !DILocation(line: 1186, column: 47, scope: !199)
!203 = !DILocation(line: 1186, column: 33, scope: !199)
!204 = !DILocation(line: 1186, column: 30, scope: !199)
!205 = !DILocation(line: 1186, column: 2, scope: !199)
!206 = !DILocation(line: 1189, column: 31, scope: !199)
!207 = !DILocation(line: 1189, column: 46, scope: !199)
!208 = !DILocation(line: 1189, column: 6, scope: !199)
!209 = !DILocation(line: 1191, column: 6, scope: !199)
!210 = !DILocation(line: 1195, column: 22, scope: !199)
!211 = !DILocation(line: 1195, column: 4, scope: !199)
!212 = !DILocation(line: 1196, column: 7, scope: !199)
!213 = distinct !DISubprogram(name: "_ZNSt6chrono8durationIlSt5ratioILl1ELl1000000EEEC1IlvEERKT_", linkageName: "_ZNSt6chrono8durationIlSt5ratioILl1ELl1000000EEEC1IlvEERKT_", scope: null, file: !24, line: 331, type: !5, scopeLine: 331, spFlags: DISPFlagDefinition | DISPFlagOptimized, unit: !0, retainedNodes: !6)
!214 = !DILocation(line: 332, column: 27, scope: !215)
!215 = !DILexicalBlockFile(scope: !213, file: !24, discriminator: 0)
!216 = !DILocation(line: 331, column: 4, scope: !215)
!217 = !DILocation(line: 332, column: 37, scope: !215)
!218 = distinct !DISubprogram(name: "_ZNKSt6chrono8durationIlSt5ratioILl1ELl1000000000EEE5countEv", linkageName: "_ZNKSt6chrono8durationIlSt5ratioILl1ELl1000000000EEE5countEv", scope: null, file: !24, line: 346, type: !5, scopeLine: 346, spFlags: DISPFlagDefinition | DISPFlagOptimized, unit: !0, retainedNodes: !6)
!219 = !DILocation(line: 347, column: 11, scope: !220)
!220 = !DILexicalBlockFile(scope: !218, file: !24, discriminator: 0)
!221 = !DILocation(line: 347, column: 16, scope: !220)
!222 = distinct !DISubprogram(name: "_ZNSt12_Vector_baseIiSaIiEEC1Ev", linkageName: "_ZNSt12_Vector_baseIiSaIiEEC1Ev", scope: null, file: !75, line: 285, type: !5, scopeLine: 285, spFlags: DISPFlagDefinition | DISPFlagOptimized, unit: !0, retainedNodes: !6)
!223 = !DILocation(line: 285, column: 7, scope: !224)
!224 = !DILexicalBlockFile(scope: !222, file: !75, discriminator: 0)
!225 = !DILocation(line: 285, column: 30, scope: !224)
!226 = distinct !DISubprogram(name: "_ZNKSt6vectorIiSaIiEE8max_sizeEv", linkageName: "_ZNKSt6vectorIiSaIiEE8max_sizeEv", scope: null, file: !75, line: 920, type: !5, scopeLine: 920, spFlags: DISPFlagDefinition | DISPFlagOptimized, unit: !0, retainedNodes: !6)
!227 = !DILocation(line: 921, column: 28, scope: !228)
!228 = !DILexicalBlockFile(scope: !226, file: !75, discriminator: 0)
!229 = !DILocation(line: 921, column: 16, scope: !228)
!230 = !DILocation(line: 921, column: 52, scope: !228)
!231 = distinct !DISubprogram(name: "_ZNKSt6vectorIiSaIiEE8capacityEv", linkageName: "_ZNKSt6vectorIiSaIiEE8capacityEv", scope: null, file: !75, line: 995, type: !5, scopeLine: 995, spFlags: DISPFlagDefinition | DISPFlagOptimized, unit: !0, retainedNodes: !6)
!232 = !DILocation(line: 996, column: 26, scope: !233)
!233 = !DILexicalBlockFile(scope: !231, file: !75, discriminator: 0)
!234 = !DILocation(line: 996, column: 32, scope: !233)
!235 = !DILocation(line: 996, column: 40, scope: !233)
!236 = !DILocation(line: 997, column: 21, scope: !233)
!237 = !DILocation(line: 997, column: 7, scope: !233)
!238 = !DILocation(line: 997, column: 5, scope: !233)
!239 = !DILocation(line: 997, column: 32, scope: !233)
!240 = distinct !DISubprogram(name: "_ZNSt6vectorIiSaIiEE15_S_use_relocateEv", linkageName: "_ZNSt6vectorIiSaIiEE15_S_use_relocateEv", scope: null, file: !75, line: 441, type: !5, scopeLine: 441, spFlags: DISPFlagDefinition | DISPFlagOptimized, unit: !0, retainedNodes: !6)
!241 = !DILocation(line: 446, column: 29, scope: !242)
!242 = !DILexicalBlockFile(scope: !240, file: !75, discriminator: 0)
!243 = !DILocation(line: 447, column: 7, scope: !242)
!244 = distinct !DISubprogram(name: "_ZNSt12_Vector_baseIiSaIiEE11_M_allocateEm", linkageName: "_ZNSt12_Vector_baseIiSaIiEE11_M_allocateEm", scope: null, file: !75, line: 340, type: !5, scopeLine: 340, spFlags: DISPFlagDefinition | DISPFlagOptimized, unit: !0, retainedNodes: !6)
!245 = !DILocation(line: 343, column: 13, scope: !246)
!246 = !DILexicalBlockFile(scope: !244, file: !75, discriminator: 0)
!247 = !DILocation(line: 343, column: 9, scope: !246)
!248 = !DILocation(line: 343, column: 34, scope: !246)
!249 = !DILocation(line: 343, column: 20, scope: !246)
!250 = !DILocation(line: 344, column: 7, scope: !246)
!251 = distinct !DISubprogram(name: "_ZNSt6vectorIiSaIiEE11_S_relocateEPiS2_S2_RS0_", linkageName: "_ZNSt6vectorIiSaIiEE11_S_relocateEPiS2_S2_RS0_", scope: null, file: !75, line: 462, type: !5, scopeLine: 462, spFlags: DISPFlagDefinition | DISPFlagOptimized, unit: !0, retainedNodes: !6)
!252 = !DILocation(line: 964, column: 14, scope: !253, inlinedAt: !254)
!253 = !DILexicalBlockFile(scope: !251, file: !160, discriminator: 0)
!254 = !DILocation(line: 453, column: 9, scope: !255, inlinedAt: !256)
!255 = !DILexicalBlockFile(scope: !251, file: !75, discriminator: 0)
!256 = !DILocation(line: 466, column: 9, scope: !255)
!257 = !DILocation(line: 467, column: 7, scope: !255)
!258 = distinct !DISubprogram(name: "_ZNSt12_Vector_baseIiSaIiEE19_M_get_Tp_allocatorEv", linkageName: "_ZNSt12_Vector_baseIiSaIiEE19_M_get_Tp_allocatorEv", scope: null, file: !75, line: 273, type: !5, scopeLine: 273, spFlags: DISPFlagDefinition | DISPFlagOptimized, unit: !0, retainedNodes: !6)
!259 = !DILocation(line: 274, column: 22, scope: !260)
!260 = !DILexicalBlockFile(scope: !258, file: !75, discriminator: 0)
!261 = !DILocation(line: 274, column: 16, scope: !260)
!262 = !DILocation(line: 274, column: 31, scope: !260)
!263 = distinct !DISubprogram(name: "_ZNSt6vectorIiSaIiEE20_M_allocate_and_copyISt13move_iteratorIPiEEES4_mT_S6_", linkageName: "_ZNSt6vectorIiSaIiEE20_M_allocate_and_copyISt13move_iteratorIPiEEES4_mT_S6_", scope: null, file: !75, line: 1505, type: !5, scopeLine: 1505, spFlags: DISPFlagDefinition | DISPFlagOptimized, unit: !0, retainedNodes: !6)
!264 = !DILocation(line: 1506, column: 35, scope: !265)
!265 = !DILexicalBlockFile(scope: !263, file: !75, discriminator: 0)
!266 = !DILocation(line: 1506, column: 9, scope: !265)
!267 = !DILocation(line: 1508, column: 23, scope: !265)
!268 = !DILocation(line: 1508, column: 29, scope: !265)
!269 = !DILocation(line: 1511, column: 36, scope: !265)
!270 = !DILocation(line: 1511, column: 45, scope: !265)
!271 = !DILocation(line: 1512, column: 8, scope: !265)
!272 = !DILocation(line: 1511, column: 8, scope: !265)
!273 = !DILocation(line: 1520, column: 2, scope: !265)
!274 = distinct !DISubprogram(name: "_ZNSt13move_iteratorIPiEC1EOS1_", linkageName: "_ZNSt13move_iteratorIPiEC1EOS1_", scope: null, file: !170, line: 1028, type: !5, scopeLine: 1028, spFlags: DISPFlagDefinition | DISPFlagOptimized, unit: !0, retainedNodes: !6)
!275 = !DILocation(line: 1028, column: 11, scope: !276)
!276 = !DILexicalBlockFile(scope: !274, file: !170, discriminator: 0)
!277 = distinct !DISubprogram(name: "_ZSt32__make_move_if_noexcept_iteratorIiSt13move_iteratorIPiEET0_PT_", linkageName: "_ZSt32__make_move_if_noexcept_iteratorIiSt13move_iteratorIPiEET0_PT_", scope: null, file: !170, line: 1239, type: !5, scopeLine: 1239, spFlags: DISPFlagDefinition | DISPFlagOptimized, unit: !0, retainedNodes: !6)
!278 = !DILocation(line: 1240, column: 14, scope: !279)
!279 = !DILexicalBlockFile(scope: !277, file: !170, discriminator: 0)
!280 = !DILocation(line: 1240, column: 7, scope: !279)
!281 = !DILocation(line: 1240, column: 32, scope: !279)
!282 = distinct !DISubprogram(name: "_ZSt8_DestroyIPiiEvT_S1_RSaIT0_E", linkageName: "_ZSt8_DestroyIPiiEvT_S1_RSaIT0_E", scope: null, file: !283, line: 203, type: !5, scopeLine: 203, spFlags: DISPFlagDefinition | DISPFlagOptimized, unit: !0, retainedNodes: !6)
!283 = !DIFile(filename: "/../lib/gcc/x86_64-linux-gnu/9/../../../../include/c++/9/bits/stl_construct.h", directory: "")
!284 = !DILocation(line: 207, column: 5, scope: !285)
!285 = !DILexicalBlockFile(scope: !282, file: !283, discriminator: 0)
!286 = distinct !DISubprogram(name: "_ZNSt12_Vector_baseIiSaIiEE13_M_deallocateEPim", linkageName: "_ZNSt12_Vector_baseIiSaIiEE13_M_deallocateEPim", scope: null, file: !75, line: 347, type: !5, scopeLine: 347, spFlags: DISPFlagDefinition | DISPFlagOptimized, unit: !0, retainedNodes: !6)
!287 = !DILocation(line: 350, column: 6, scope: !288)
!288 = !DILexicalBlockFile(scope: !286, file: !75, discriminator: 0)
!289 = !DILocation(line: 351, column: 20, scope: !288)
!290 = !DILocation(line: 351, column: 4, scope: !288)
!291 = !DILocation(line: 352, column: 7, scope: !288)
!292 = distinct !DISubprogram(name: "_ZNSt16allocator_traitsISaIiEE9constructIiJRKiEEEvRS0_PT_DpOT0_", linkageName: "_ZNSt16allocator_traitsISaIiEE9constructIiJRKiEEEvRS0_PT_DpOT0_", scope: null, file: !293, line: 481, type: !5, scopeLine: 481, spFlags: DISPFlagDefinition | DISPFlagOptimized, unit: !0, retainedNodes: !6)
!293 = !DIFile(filename: "/../lib/gcc/x86_64-linux-gnu/9/../../../../include/c++/9/bits/alloc_traits.h", directory: "")
!294 = !DILocation(line: 483, column: 4, scope: !295)
!295 = !DILexicalBlockFile(scope: !292, file: !293, discriminator: 0)
!296 = !DILocation(line: 483, column: 8, scope: !295)
!297 = !DILocation(line: 483, column: 56, scope: !295)
!298 = distinct !DISubprogram(name: "_ZNSt6vectorIiSaIiEE17_M_realloc_insertIJRKiEEEvN9__gnu_cxx17__normal_iteratorIPiS1_EEDpOT_", linkageName: "_ZNSt6vectorIiSaIiEE17_M_realloc_insertIJRKiEEEvN9__gnu_cxx17__normal_iteratorIPiS1_EEDpOT_", scope: null, file: !75, line: 1734, type: !5, scopeLine: 1734, spFlags: DISPFlagDefinition | DISPFlagOptimized, unit: !0, retainedNodes: !6)
!299 = !DILocation(line: 1734, column: 20, scope: !300)
!300 = !DILexicalBlockFile(scope: !298, file: !75, discriminator: 0)
!301 = !DILocation(line: 436, column: 2, scope: !302)
!302 = !DILexicalBlockFile(scope: !298, file: !140, discriminator: 0)
!303 = !DILocation(line: 437, column: 29, scope: !302)
!304 = !DILocation(line: 437, column: 35, scope: !302)
!305 = !DILocation(line: 437, column: 43, scope: !302)
!306 = !DILocation(line: 438, column: 44, scope: !302)
!307 = !DILocation(line: 438, column: 30, scope: !302)
!308 = !DILocation(line: 439, column: 53, scope: !302)
!309 = !DILocation(line: 439, column: 51, scope: !302)
!310 = !DILocation(line: 440, column: 33, scope: !302)
!311 = !DILocation(line: 449, column: 29, scope: !302)
!312 = !DILocation(line: 450, column: 20, scope: !302)
!313 = !DILocation(line: 449, column: 4, scope: !302)
!314 = !DILocation(line: 459, column: 29, scope: !302)
!315 = !DILocation(line: 459, column: 4, scope: !302)
!316 = !DILocation(line: 461, column: 59, scope: !302)
!317 = !DILocation(line: 461, column: 48, scope: !302)
!318 = !DILocation(line: 462, column: 20, scope: !302)
!319 = !DILocation(line: 964, column: 14, scope: !320, inlinedAt: !321)
!320 = !DILexicalBlockFile(scope: !298, file: !160, discriminator: 0)
!321 = !DILocation(line: 453, column: 9, scope: !300, inlinedAt: !322)
!322 = !DILocation(line: 466, column: 9, scope: !300, inlinedAt: !323)
!323 = !DILocation(line: 461, column: 23, scope: !302)
!324 = !DILocation(line: 464, column: 8, scope: !302)
!325 = !DILocation(line: 466, column: 46, scope: !302)
!326 = !DILocation(line: 466, column: 35, scope: !302)
!327 = !DILocation(line: 467, column: 21, scope: !302)
!328 = !DILocation(line: 474, column: 28, scope: !302)
!329 = !DILocation(line: 474, column: 17, scope: !302)
!330 = !DILocation(line: 475, column: 17, scope: !302)
!331 = !DILocation(line: 473, column: 5, scope: !302)
!332 = !DILocation(line: 477, column: 8, scope: !302)
!333 = !DILocation(line: 481, column: 15, scope: !302)
!334 = !DILocation(line: 481, column: 4, scope: !302)
!335 = !DILocation(line: 482, column: 18, scope: !302)
!336 = !DILocation(line: 480, column: 5, scope: !302)
!337 = !DILocation(line: 496, column: 33, scope: !302)
!338 = !DILocation(line: 0, scope: !302)
!339 = !DILocation(line: 496, column: 7, scope: !302)
!340 = !DILocation(line: 498, column: 43, scope: !302)
!341 = !DILocation(line: 501, column: 21, scope: !302)
!342 = !DILocation(line: 501, column: 7, scope: !302)
!343 = !DILocation(line: 501, column: 39, scope: !302)
!344 = !DILocation(line: 500, column: 7, scope: !302)
!345 = !DILocation(line: 502, column: 30, scope: !302)
!346 = !DILocation(line: 503, column: 31, scope: !302)
!347 = !DILocation(line: 504, column: 53, scope: !302)
!348 = !DILocation(line: 504, column: 39, scope: !302)
!349 = !DILocation(line: 505, column: 5, scope: !302)
!350 = distinct !DISubprogram(name: "_ZN9__gnu_cxx17__normal_iteratorIPiSt6vectorIiSaIiEEEC1EOS5_", linkageName: "_ZN9__gnu_cxx17__normal_iteratorIPiSt6vectorIiSaIiEEEC1EOS5_", scope: null, file: !170, line: 784, type: !5, scopeLine: 784, spFlags: DISPFlagDefinition | DISPFlagOptimized, unit: !0, retainedNodes: !6)
!351 = !DILocation(line: 784, column: 11, scope: !352)
!352 = !DILexicalBlockFile(scope: !350, file: !170, discriminator: 0)
!353 = distinct !DISubprogram(name: "_ZNSt6vectorIiSaIiEE3endEv", linkageName: "_ZNSt6vectorIiSaIiEE3endEv", scope: null, file: !75, line: 826, type: !5, scopeLine: 826, spFlags: DISPFlagDefinition | DISPFlagOptimized, unit: !0, retainedNodes: !6)
!354 = !DILocation(line: 827, column: 25, scope: !355)
!355 = !DILexicalBlockFile(scope: !353, file: !75, discriminator: 0)
!356 = !DILocation(line: 827, column: 31, scope: !355)
!357 = !DILocation(line: 827, column: 39, scope: !355)
!358 = !DILocation(line: 827, column: 16, scope: !355)
!359 = !DILocation(line: 827, column: 9, scope: !355)
!360 = !DILocation(line: 827, column: 51, scope: !355)
!361 = distinct !DISubprogram(name: "_ZNSt12_Vector_baseIiSaIiEE12_Vector_implC1Ev", linkageName: "_ZNSt12_Vector_baseIiSaIiEE12_Vector_implC1Ev", scope: null, file: !75, line: 128, type: !5, scopeLine: 128, spFlags: DISPFlagDefinition | DISPFlagOptimized, unit: !0, retainedNodes: !6)
!362 = !DILocation(line: 128, column: 2, scope: !363)
!363 = !DILexicalBlockFile(scope: !361, file: !75, discriminator: 0)
!364 = !DILocation(line: 131, column: 4, scope: !363)
!365 = distinct !DISubprogram(name: "_ZNSt6vectorIiSaIiEE11_S_max_sizeERKS0_", linkageName: "_ZNSt6vectorIiSaIiEE11_S_max_sizeERKS0_", scope: null, file: !75, line: 1773, type: !5, scopeLine: 1773, spFlags: DISPFlagDefinition | DISPFlagOptimized, unit: !0, retainedNodes: !6)
!366 = !DILocation(line: 1780, column: 2, scope: !367)
!367 = !DILexicalBlockFile(scope: !365, file: !75, discriminator: 0)
!368 = !DILocation(line: 1778, column: 2, scope: !367)
!369 = !DILocation(line: 1781, column: 9, scope: !367)
!370 = !DILocation(line: 1782, column: 7, scope: !367)
!371 = distinct !DISubprogram(name: "_ZNKSt12_Vector_baseIiSaIiEE19_M_get_Tp_allocatorEv", linkageName: "_ZNKSt12_Vector_baseIiSaIiEE19_M_get_Tp_allocatorEv", scope: null, file: !75, line: 277, type: !5, scopeLine: 277, spFlags: DISPFlagDefinition | DISPFlagOptimized, unit: !0, retainedNodes: !6)
!372 = !DILocation(line: 278, column: 22, scope: !373)
!373 = !DILexicalBlockFile(scope: !371, file: !75, discriminator: 0)
!374 = !DILocation(line: 278, column: 16, scope: !373)
!375 = !DILocation(line: 278, column: 31, scope: !373)
!376 = distinct !DISubprogram(name: "_ZNSt6vectorIiSaIiEE19_S_nothrow_relocateESt17integral_constantIbLb1EE", linkageName: "_ZNSt6vectorIiSaIiEE19_S_nothrow_relocateESt17integral_constantIbLb1EE", scope: null, file: !75, line: 428, type: !5, scopeLine: 428, spFlags: DISPFlagDefinition | DISPFlagOptimized, unit: !0, retainedNodes: !6)
!377 = !DILocation(line: 434, column: 7, scope: !378)
!378 = !DILexicalBlockFile(scope: !376, file: !75, discriminator: 0)
!379 = distinct !DISubprogram(name: "_ZNSt17integral_constantIbLb1EEC1EOS0_", linkageName: "_ZNSt17integral_constantIbLb1EEC1EOS0_", scope: null, file: !380, line: 57, type: !5, scopeLine: 57, spFlags: DISPFlagDefinition | DISPFlagOptimized, unit: !0, retainedNodes: !6)
!380 = !DIFile(filename: "/../lib/gcc/x86_64-linux-gnu/9/../../../../include/c++/9/type_traits", directory: "")
!381 = !DILocation(line: 57, column: 12, scope: !382)
!382 = !DILexicalBlockFile(scope: !379, file: !380, discriminator: 0)
!383 = distinct !DISubprogram(name: "_ZNSt16allocator_traitsISaIiEE8allocateERS0_m", linkageName: "_ZNSt16allocator_traitsISaIiEE8allocateERS0_m", scope: null, file: !293, line: 442, type: !5, scopeLine: 442, spFlags: DISPFlagDefinition | DISPFlagOptimized, unit: !0, retainedNodes: !6)
!384 = !DILocation(line: 443, column: 16, scope: !385)
!385 = !DILexicalBlockFile(scope: !383, file: !293, discriminator: 0)
!386 = !DILocation(line: 443, column: 20, scope: !385)
!387 = !DILocation(line: 443, column: 35, scope: !385)
!388 = distinct !DISubprogram(name: "_ZNSt6vectorIiSaIiEE14_S_do_relocateEPiS2_S2_RS0_St17integral_constantIbLb1EE", linkageName: "_ZNSt6vectorIiSaIiEE14_S_do_relocateEPiS2_S2_RS0_St17integral_constantIbLb1EE", scope: null, file: !75, line: 450, type: !5, scopeLine: 450, spFlags: DISPFlagDefinition | DISPFlagOptimized, unit: !0, retainedNodes: !6)
!389 = !DILocation(line: 964, column: 14, scope: !390, inlinedAt: !391)
!390 = !DILexicalBlockFile(scope: !388, file: !160, discriminator: 0)
!391 = !DILocation(line: 453, column: 9, scope: !392)
!392 = !DILexicalBlockFile(scope: !388, file: !75, discriminator: 0)
!393 = !DILocation(line: 454, column: 7, scope: !392)
!394 = distinct !DISubprogram(name: "_ZSt22__uninitialized_copy_aISt13move_iteratorIPiES1_iET0_T_S4_S3_RSaIT1_E", linkageName: "_ZSt22__uninitialized_copy_aISt13move_iteratorIPiES1_iET0_T_S4_S3_RSaIT1_E", scope: null, file: !160, line: 305, type: !5, scopeLine: 305, spFlags: DISPFlagDefinition | DISPFlagOptimized, unit: !0, retainedNodes: !6)
!395 = !DILocation(line: 305, column: 52, scope: !396)
!396 = !DILexicalBlockFile(scope: !394, file: !160, discriminator: 0)
!397 = !DILocation(line: 305, column: 28, scope: !396)
!398 = !DILocation(line: 307, column: 38, scope: !396)
!399 = !DILocation(line: 307, column: 47, scope: !396)
!400 = !DILocation(line: 307, column: 14, scope: !396)
!401 = !DILocation(line: 307, column: 66, scope: !396)
!402 = distinct !DISubprogram(name: "_ZNSt13move_iteratorIPiEC1ERKS1_", linkageName: "_ZNSt13move_iteratorIPiEC1ERKS1_", scope: null, file: !170, line: 1028, type: !5, scopeLine: 1028, spFlags: DISPFlagDefinition | DISPFlagOptimized, unit: !0, retainedNodes: !6)
!403 = !DILocation(line: 1028, column: 11, scope: !404)
!404 = !DILexicalBlockFile(scope: !402, file: !170, discriminator: 0)
!405 = distinct !DISubprogram(name: "_ZNSt13move_iteratorIPiEC1ES0_", linkageName: "_ZNSt13move_iteratorIPiEC1ES0_", scope: null, file: !170, line: 1054, type: !5, scopeLine: 1054, spFlags: DISPFlagDefinition | DISPFlagOptimized, unit: !0, retainedNodes: !6)
!406 = !DILocation(line: 1053, column: 7, scope: !407)
!407 = !DILexicalBlockFile(scope: !405, file: !170, discriminator: 0)
!408 = !DILocation(line: 1055, column: 27, scope: !407)
!409 = distinct !DISubprogram(name: "_ZSt8_DestroyIPiEvT_S1_", linkageName: "_ZSt8_DestroyIPiEvT_S1_", scope: null, file: !283, line: 127, type: !5, scopeLine: 127, spFlags: DISPFlagDefinition | DISPFlagOptimized, unit: !0, retainedNodes: !6)
!410 = !DILocation(line: 138, column: 5, scope: !411)
!411 = !DILexicalBlockFile(scope: !409, file: !283, discriminator: 0)
!412 = distinct !DISubprogram(name: "_ZNSt16allocator_traitsISaIiEE10deallocateERS0_Pim", linkageName: "_ZNSt16allocator_traitsISaIiEE10deallocateERS0_Pim", scope: null, file: !293, line: 468, type: !5, scopeLine: 468, spFlags: DISPFlagDefinition | DISPFlagOptimized, unit: !0, retainedNodes: !6)
!413 = !DILocation(line: 469, column: 9, scope: !414)
!414 = !DILexicalBlockFile(scope: !412, file: !293, discriminator: 0)
!415 = !DILocation(line: 469, column: 13, scope: !414)
!416 = !DILocation(line: 469, column: 35, scope: !414)
!417 = distinct !DISubprogram(name: "_ZN9__gnu_cxx13new_allocatorIiE9constructIiJRKiEEEvPT_DpOT0_", linkageName: "_ZN9__gnu_cxx13new_allocatorIiE9constructIiJRKiEEEvPT_DpOT0_", scope: null, file: !418, line: 144, type: !5, scopeLine: 144, spFlags: DISPFlagDefinition | DISPFlagOptimized, unit: !0, retainedNodes: !6)
!418 = !DIFile(filename: "/../lib/gcc/x86_64-linux-gnu/9/../../../../include/c++/9/ext/new_allocator.h", directory: "")
!419 = !DILocation(line: 146, column: 27, scope: !420)
!420 = !DILexicalBlockFile(scope: !417, file: !418, discriminator: 0)
!421 = !DILocation(line: 146, column: 4, scope: !420)
!422 = !DILocation(line: 146, column: 60, scope: !420)
!423 = distinct !DISubprogram(name: "_ZNKSt6vectorIiSaIiEE12_M_check_lenEmPKc", linkageName: "_ZNKSt6vectorIiSaIiEE12_M_check_lenEmPKc", scope: null, file: !75, line: 1753, type: !5, scopeLine: 1753, spFlags: DISPFlagDefinition | DISPFlagOptimized, unit: !0, retainedNodes: !6)
!424 = !DILocation(line: 1753, column: 20, scope: !425)
!425 = !DILexicalBlockFile(scope: !423, file: !75, discriminator: 0)
!426 = !DILocation(line: 1755, column: 6, scope: !425)
!427 = !DILocation(line: 1755, column: 19, scope: !425)
!428 = !DILocation(line: 1755, column: 17, scope: !425)
!429 = !DILocation(line: 1755, column: 28, scope: !425)
!430 = !DILocation(line: 1755, column: 26, scope: !425)
!431 = !DILocation(line: 1755, column: 2, scope: !425)
!432 = !DILocation(line: 1756, column: 4, scope: !425)
!433 = !DILocation(line: 1758, column: 26, scope: !425)
!434 = !DILocation(line: 1758, column: 46, scope: !425)
!435 = !DILocation(line: 1758, column: 35, scope: !425)
!436 = !DILocation(line: 1758, column: 33, scope: !425)
!437 = !DILocation(line: 1759, column: 18, scope: !425)
!438 = !DILocation(line: 1759, column: 16, scope: !425)
!439 = !DILocation(line: 1759, column: 25, scope: !425)
!440 = !DILocation(line: 1759, column: 36, scope: !425)
!441 = !DILocation(line: 1759, column: 34, scope: !425)
!442 = !DILocation(line: 1759, column: 9, scope: !425)
!443 = !DILocation(line: 1759, column: 50, scope: !425)
!444 = !DILocation(line: 1760, column: 7, scope: !425)
!445 = distinct !DISubprogram(name: "_ZN9__gnu_cxxmiIPiSt6vectorIiSaIiEEEENS_17__normal_iteratorIT_T0_E15difference_typeERKS8_SB_", linkageName: "_ZN9__gnu_cxxmiIPiSt6vectorIiSaIiEEEENS_17__normal_iteratorIT_T0_E15difference_typeERKS8_SB_", scope: null, file: !170, line: 986, type: !5, scopeLine: 986, spFlags: DISPFlagDefinition | DISPFlagOptimized, unit: !0, retainedNodes: !6)
!446 = !DILocation(line: 989, column: 20, scope: !447)
!447 = !DILexicalBlockFile(scope: !445, file: !170, discriminator: 0)
!448 = !DILocation(line: 989, column: 14, scope: !447)
!449 = !DILocation(line: 989, column: 35, scope: !447)
!450 = !DILocation(line: 989, column: 29, scope: !447)
!451 = !DILocation(line: 989, column: 27, scope: !447)
!452 = !DILocation(line: 989, column: 43, scope: !447)
!453 = distinct !DISubprogram(name: "_ZNSt6vectorIiSaIiEE5beginEv", linkageName: "_ZNSt6vectorIiSaIiEE5beginEv", scope: null, file: !75, line: 808, type: !5, scopeLine: 808, spFlags: DISPFlagDefinition | DISPFlagOptimized, unit: !0, retainedNodes: !6)
!454 = !DILocation(line: 809, column: 25, scope: !455)
!455 = !DILexicalBlockFile(scope: !453, file: !75, discriminator: 0)
!456 = !DILocation(line: 809, column: 31, scope: !455)
!457 = !DILocation(line: 809, column: 39, scope: !455)
!458 = !DILocation(line: 809, column: 16, scope: !455)
!459 = !DILocation(line: 809, column: 9, scope: !455)
!460 = !DILocation(line: 809, column: 50, scope: !455)
!461 = distinct !DISubprogram(name: "_ZNK9__gnu_cxx17__normal_iteratorIPiSt6vectorIiSaIiEEE4baseEv", linkageName: "_ZNK9__gnu_cxx17__normal_iteratorIPiSt6vectorIiSaIiEEE4baseEv", scope: null, file: !170, line: 868, type: !5, scopeLine: 868, spFlags: DISPFlagDefinition | DISPFlagOptimized, unit: !0, retainedNodes: !6)
!462 = !DILocation(line: 869, column: 16, scope: !463)
!463 = !DILexicalBlockFile(scope: !461, file: !170, discriminator: 0)
!464 = !DILocation(line: 869, column: 28, scope: !463)
!465 = distinct !DISubprogram(name: "_ZSt34__uninitialized_move_if_noexcept_aIPiS0_SaIiEET0_T_S3_S2_RT1_", linkageName: "_ZSt34__uninitialized_move_if_noexcept_aIPiS0_SaIiEET0_T_S3_S2_RT1_", scope: null, file: !160, line: 323, type: !5, scopeLine: 323, spFlags: DISPFlagDefinition | DISPFlagOptimized, unit: !0, retainedNodes: !6)
!466 = !DILocation(line: 1265, column: 3, scope: !467)
!467 = !DILexicalBlockFile(scope: !465, file: !170, discriminator: 0)
!468 = !DILocation(line: 328, column: 14, scope: !469)
!469 = !DILexicalBlockFile(scope: !465, file: !160, discriminator: 0)
!470 = !DILocation(line: 331, column: 5, scope: !469)
!471 = distinct !DISubprogram(name: "_ZN9__gnu_cxx17__normal_iteratorIPiSt6vectorIiSaIiEEEC1ERKS1_", linkageName: "_ZN9__gnu_cxx17__normal_iteratorIPiSt6vectorIiSaIiEEEC1ERKS1_", scope: null, file: !170, line: 803, type: !5, scopeLine: 803, spFlags: DISPFlagDefinition | DISPFlagOptimized, unit: !0, retainedNodes: !6)
!472 = !DILocation(line: 804, column: 20, scope: !473)
!473 = !DILexicalBlockFile(scope: !471, file: !170, discriminator: 0)
!474 = !DILocation(line: 802, column: 7, scope: !473)
!475 = !DILocation(line: 804, column: 27, scope: !473)
!476 = distinct !DISubprogram(name: "_ZNSaIiEC1Ev", linkageName: "_ZNSaIiEC1Ev", scope: null, file: !477, line: 137, type: !5, scopeLine: 137, spFlags: DISPFlagDefinition | DISPFlagOptimized, unit: !0, retainedNodes: !6)
!477 = !DIFile(filename: "/../lib/gcc/x86_64-linux-gnu/9/../../../../include/c++/9/bits/allocator.h", directory: "")
!478 = !DILocation(line: 137, column: 38, scope: !479)
!479 = !DILexicalBlockFile(scope: !476, file: !477, discriminator: 0)
!480 = distinct !DISubprogram(name: "_ZNSt12_Vector_baseIiSaIiEE17_Vector_impl_dataC1Ev", linkageName: "_ZNSt12_Vector_baseIiSaIiEE17_Vector_impl_dataC1Ev", scope: null, file: !75, line: 94, type: !5, scopeLine: 94, spFlags: DISPFlagDefinition | DISPFlagOptimized, unit: !0, retainedNodes: !6)
!481 = !DILocation(line: 94, column: 2, scope: !482)
!482 = !DILexicalBlockFile(scope: !480, file: !75, discriminator: 0)
!483 = !DILocation(line: 96, column: 4, scope: !482)
!484 = distinct !DISubprogram(name: "_ZNSt16allocator_traitsISaIiEE8max_sizeERKS0_", linkageName: "_ZNSt16allocator_traitsISaIiEE8max_sizeERKS0_", scope: null, file: !293, line: 504, type: !5, scopeLine: 504, spFlags: DISPFlagDefinition | DISPFlagOptimized, unit: !0, retainedNodes: !6)
!485 = !DILocation(line: 505, column: 32, scope: !486)
!486 = !DILexicalBlockFile(scope: !484, file: !293, discriminator: 0)
!487 = distinct !DISubprogram(name: "_ZSt3minImERKT_S2_S2_", linkageName: "_ZSt3minImERKT_S2_S2_", scope: null, file: !488, line: 198, type: !5, scopeLine: 198, spFlags: DISPFlagDefinition | DISPFlagOptimized, unit: !0, retainedNodes: !6)
!488 = !DIFile(filename: "/../lib/gcc/x86_64-linux-gnu/9/../../../../include/c++/9/bits/stl_algobase.h", directory: "")
!489 = !DILocation(line: 203, column: 11, scope: !490)
!490 = !DILexicalBlockFile(scope: !487, file: !488, discriminator: 0)
!491 = !DILocation(line: 203, column: 17, scope: !490)
!492 = !DILocation(line: 203, column: 15, scope: !490)
!493 = !DILocation(line: 203, column: 7, scope: !490)
!494 = !DILocation(line: 206, column: 5, scope: !490)
!495 = distinct !DISubprogram(name: "_ZN9__gnu_cxx13new_allocatorIiE8allocateEmPKv", linkageName: "_ZN9__gnu_cxx13new_allocatorIiE8allocateEmPKv", scope: null, file: !418, line: 102, type: !5, scopeLine: 102, spFlags: DISPFlagDefinition | DISPFlagOptimized, unit: !0, retainedNodes: !6)
!496 = !DILocation(line: 104, column: 10, scope: !497)
!497 = !DILexicalBlockFile(scope: !495, file: !418, discriminator: 0)
!498 = !DILocation(line: 104, column: 2, scope: !497)
!499 = !DILocation(line: 105, column: 4, scope: !497)
!500 = !DILocation(line: 114, column: 46, scope: !497)
!501 = !DILocation(line: 114, column: 27, scope: !497)
!502 = !DILocation(line: 114, column: 9, scope: !497)
!503 = !DILocation(line: 115, column: 7, scope: !497)
!504 = distinct !DISubprogram(name: "_ZSt12__relocate_aIPiS0_SaIiEET0_T_S3_S2_RT1_", linkageName: "_ZSt12__relocate_aIPiS0_SaIiEET0_T_S3_S2_RT1_", scope: null, file: !160, line: 958, type: !5, scopeLine: 958, spFlags: DISPFlagDefinition | DISPFlagOptimized, unit: !0, retainedNodes: !6)
!505 = !DILocation(line: 964, column: 14, scope: !506)
!506 = !DILexicalBlockFile(scope: !504, file: !160, discriminator: 0)
!507 = !DILocation(line: 967, column: 5, scope: !506)
!508 = distinct !DISubprogram(name: "_ZSt18uninitialized_copyISt13move_iteratorIPiES1_ET0_T_S4_S3_", linkageName: "_ZSt18uninitialized_copyISt13move_iteratorIPiES1_ET0_T_S4_S3_", scope: null, file: !160, line: 115, type: !5, scopeLine: 115, spFlags: DISPFlagDefinition | DISPFlagOptimized, unit: !0, retainedNodes: !6)
!509 = !DILocation(line: 115, column: 48, scope: !510)
!510 = !DILexicalBlockFile(scope: !508, file: !160, discriminator: 0)
!511 = !DILocation(line: 115, column: 24, scope: !510)
!512 = !DILocation(line: 140, column: 16, scope: !510)
!513 = !DILocation(line: 140, column: 25, scope: !510)
!514 = !DILocation(line: 137, column: 14, scope: !510)
!515 = !DILocation(line: 141, column: 5, scope: !510)
!516 = distinct !DISubprogram(name: "_ZNSt12_Destroy_auxILb1EE9__destroyIPiEEvT_S3_", linkageName: "_ZNSt12_Destroy_auxILb1EE9__destroyIPiEEvT_S3_", scope: null, file: !283, line: 117, type: !5, scopeLine: 117, spFlags: DISPFlagDefinition | DISPFlagOptimized, unit: !0, retainedNodes: !6)
!517 = !DILocation(line: 117, column: 57, scope: !518)
!518 = !DILexicalBlockFile(scope: !516, file: !283, discriminator: 0)
!519 = distinct !DISubprogram(name: "_ZN9__gnu_cxx13new_allocatorIiE10deallocateEPim", linkageName: "_ZN9__gnu_cxx13new_allocatorIiE10deallocateEPim", scope: null, file: !418, line: 119, type: !5, scopeLine: 119, spFlags: DISPFlagDefinition | DISPFlagOptimized, unit: !0, retainedNodes: !6)
!520 = !DILocation(line: 128, column: 20, scope: !521)
!521 = !DILexicalBlockFile(scope: !519, file: !418, discriminator: 0)
!522 = !DILocation(line: 128, column: 2, scope: !521)
!523 = !DILocation(line: 129, column: 7, scope: !521)
!524 = distinct !DISubprogram(name: "_ZSt3maxImERKT_S2_S2_", linkageName: "_ZSt3maxImERKT_S2_S2_", scope: null, file: !488, line: 222, type: !5, scopeLine: 222, spFlags: DISPFlagDefinition | DISPFlagOptimized, unit: !0, retainedNodes: !6)
!525 = !DILocation(line: 227, column: 11, scope: !526)
!526 = !DILexicalBlockFile(scope: !524, file: !488, discriminator: 0)
!527 = !DILocation(line: 227, column: 17, scope: !526)
!528 = !DILocation(line: 227, column: 15, scope: !526)
!529 = !DILocation(line: 227, column: 7, scope: !526)
!530 = !DILocation(line: 230, column: 5, scope: !526)
!531 = distinct !DISubprogram(name: "_ZN9__gnu_cxx13new_allocatorIiEC1Ev", linkageName: "_ZN9__gnu_cxx13new_allocatorIiEC1Ev", scope: null, file: !418, line: 80, type: !5, scopeLine: 80, spFlags: DISPFlagDefinition | DISPFlagOptimized, unit: !0, retainedNodes: !6)
!532 = !DILocation(line: 80, column: 47, scope: !533)
!533 = !DILexicalBlockFile(scope: !531, file: !418, discriminator: 0)
!534 = distinct !DISubprogram(name: "_ZNK9__gnu_cxx13new_allocatorIiE8max_sizeEv", linkageName: "_ZNK9__gnu_cxx13new_allocatorIiE8max_sizeEv", scope: null, file: !418, line: 132, type: !5, scopeLine: 132, spFlags: DISPFlagDefinition | DISPFlagOptimized, unit: !0, retainedNodes: !6)
!535 = !DILocation(line: 139, column: 7, scope: !536)
!536 = !DILexicalBlockFile(scope: !534, file: !418, discriminator: 0)
!537 = distinct !DISubprogram(name: "_ZSt14__relocate_a_1IiiENSt9enable_ifIXsr3std24__is_bitwise_relocatableIT_EE5valueEPS1_E4typeES2_S2_S2_RSaIT0_E", linkageName: "_ZSt14__relocate_a_1IiiENSt9enable_ifIXsr3std24__is_bitwise_relocatableIT_EE5valueEPS1_E4typeES2_S2_S2_RSaIT0_E", scope: null, file: !160, line: 924, type: !5, scopeLine: 924, spFlags: DISPFlagDefinition | DISPFlagOptimized, unit: !0, retainedNodes: !6)
!538 = !DILocation(line: 927, column: 34, scope: !539)
!539 = !DILexicalBlockFile(scope: !537, file: !160, discriminator: 0)
!540 = !DILocation(line: 928, column: 19, scope: !539)
!541 = !DILocation(line: 928, column: 7, scope: !539)
!542 = !DILocation(line: 929, column: 20, scope: !539)
!543 = !DILocation(line: 929, column: 30, scope: !539)
!544 = !DILocation(line: 929, column: 47, scope: !539)
!545 = !DILocation(line: 929, column: 2, scope: !539)
!546 = !DILocation(line: 930, column: 23, scope: !539)
!547 = !DILocation(line: 931, column: 5, scope: !539)
!548 = distinct !DISubprogram(name: "_ZSt12__niter_baseIPiET_S1_", linkageName: "_ZSt12__niter_baseIPiET_S1_", scope: null, file: !488, line: 280, type: !5, scopeLine: 280, spFlags: DISPFlagDefinition | DISPFlagOptimized, unit: !0, retainedNodes: !6)
!549 = !DILocation(line: 282, column: 20, scope: !550)
!550 = !DILexicalBlockFile(scope: !548, file: !488, discriminator: 0)
!551 = distinct !DISubprogram(name: "_ZNSt20__uninitialized_copyILb1EE13__uninit_copyISt13move_iteratorIPiES3_EET0_T_S6_S5_", linkageName: "_ZNSt20__uninitialized_copyILb1EE13__uninit_copyISt13move_iteratorIPiES3_EET0_T_S6_S5_", scope: null, file: !160, line: 99, type: !5, scopeLine: 99, spFlags: DISPFlagDefinition | DISPFlagOptimized, unit: !0, retainedNodes: !6)
!552 = !DILocation(line: 99, column: 47, scope: !553)
!553 = !DILexicalBlockFile(scope: !551, file: !160, discriminator: 0)
!554 = !DILocation(line: 99, column: 23, scope: !553)
!555 = !DILocation(line: 101, column: 28, scope: !553)
!556 = !DILocation(line: 101, column: 37, scope: !553)
!557 = !DILocation(line: 101, column: 18, scope: !553)
!558 = !DILocation(line: 101, column: 56, scope: !553)
!559 = distinct !DISubprogram(name: "_ZSt4copyISt13move_iteratorIPiES1_ET0_T_S4_S3_", linkageName: "_ZSt4copyISt13move_iteratorIPiES1_ET0_T_S4_S3_", scope: null, file: !488, line: 465, type: !5, scopeLine: 465, spFlags: DISPFlagDefinition | DISPFlagOptimized, unit: !0, retainedNodes: !6)
!560 = !DILocation(line: 465, column: 23, scope: !561)
!561 = !DILexicalBlockFile(scope: !559, file: !488, discriminator: 0)
!562 = !DILocation(line: 465, column: 10, scope: !561)
!563 = !DILocation(line: 474, column: 26, scope: !561)
!564 = !DILocation(line: 474, column: 8, scope: !561)
!565 = !DILocation(line: 474, column: 54, scope: !561)
!566 = !DILocation(line: 474, column: 36, scope: !561)
!567 = !DILocation(line: 473, column: 14, scope: !561)
!568 = !DILocation(line: 475, column: 5, scope: !561)
!569 = distinct !DISubprogram(name: "_ZSt14__copy_move_a2ILb1EPiS0_ET1_T0_S2_S1_", linkageName: "_ZSt14__copy_move_a2ILb1EPiS0_ET1_T0_S2_S1_", scope: null, file: !488, line: 438, type: !5, scopeLine: 438, spFlags: DISPFlagDefinition | DISPFlagOptimized, unit: !0, retainedNodes: !6)
!570 = !DILocation(line: 403, column: 14, scope: !571, inlinedAt: !572)
!571 = !DILexicalBlockFile(scope: !569, file: !488, discriminator: 0)
!572 = !DILocation(line: 441, column: 3, scope: !571)
!573 = !DILocation(line: 444, column: 5, scope: !571)
!574 = distinct !DISubprogram(name: "_ZSt12__miter_baseIPiEDTcl12__miter_basecldtfp_4baseEEESt13move_iteratorIT_E", linkageName: "_ZSt12__miter_baseIPiEDTcl12__miter_basecldtfp_4baseEEESt13move_iteratorIT_E", scope: null, file: !170, line: 1259, type: !5, scopeLine: 1259, spFlags: DISPFlagDefinition | DISPFlagOptimized, unit: !0, retainedNodes: !6)
!575 = !DILocation(line: 1259, column: 18, scope: !576)
!576 = !DILexicalBlockFile(scope: !574, file: !170, discriminator: 0)
!577 = !DILocation(line: 1261, column: 32, scope: !576)
!578 = !DILocation(line: 1261, column: 41, scope: !576)
!579 = distinct !DISubprogram(name: "_ZSt12__niter_wrapIPiET_RKS1_S1_", linkageName: "_ZSt12__niter_wrapIPiET_RKS1_S1_", scope: null, file: !488, line: 295, type: !5, scopeLine: 295, spFlags: DISPFlagDefinition | DISPFlagOptimized, unit: !0, retainedNodes: !6)
!580 = !DILocation(line: 296, column: 21, scope: !581)
!581 = !DILexicalBlockFile(scope: !579, file: !488, discriminator: 0)
!582 = distinct !DISubprogram(name: "_ZSt13__copy_move_aILb1EPiS0_ET1_T0_S2_S1_", linkageName: "_ZSt13__copy_move_aILb1EPiS0_ET1_T0_S2_S1_", scope: null, file: !488, line: 393, type: !5, scopeLine: 393, spFlags: DISPFlagDefinition | DISPFlagOptimized, unit: !0, retainedNodes: !6)
!583 = !DILocation(line: 403, column: 14, scope: !584)
!584 = !DILexicalBlockFile(scope: !582, file: !488, discriminator: 0)
!585 = !DILocation(line: 405, column: 5, scope: !584)
!586 = distinct !DISubprogram(name: "_ZSt12__miter_baseIPiET_S1_", linkageName: "_ZSt12__miter_baseIPiET_S1_", scope: null, file: !587, line: 428, type: !5, scopeLine: 428, spFlags: DISPFlagDefinition | DISPFlagOptimized, unit: !0, retainedNodes: !6)
!587 = !DIFile(filename: "/../lib/gcc/x86_64-linux-gnu/9/../../../../include/c++/9/bits/cpp_type_traits.h", directory: "")
!588 = !DILocation(line: 429, column: 20, scope: !589)
!589 = !DILexicalBlockFile(scope: !586, file: !587, discriminator: 0)
!590 = distinct !DISubprogram(name: "_ZNKSt13move_iteratorIPiE4baseEv", linkageName: "_ZNKSt13move_iteratorIPiE4baseEv", scope: null, file: !170, line: 1063, type: !5, scopeLine: 1063, spFlags: DISPFlagDefinition | DISPFlagOptimized, unit: !0, retainedNodes: !6)
!591 = !DILocation(line: 1064, column: 16, scope: !592)
!592 = !DILexicalBlockFile(scope: !590, file: !170, discriminator: 0)
!593 = !DILocation(line: 1064, column: 28, scope: !592)
!594 = distinct !DISubprogram(name: "_ZNSt11__copy_moveILb1ELb1ESt26random_access_iterator_tagE8__copy_mIiEEPT_PKS3_S6_S4_", linkageName: "_ZNSt11__copy_moveILb1ELb1ESt26random_access_iterator_tagE8__copy_mIiEEPT_PKS3_S6_S4_", scope: null, file: !488, line: 375, type: !5, scopeLine: 375, spFlags: DISPFlagDefinition | DISPFlagOptimized, unit: !0, retainedNodes: !6)
!595 = !DILocation(line: 384, column: 34, scope: !596)
!596 = !DILexicalBlockFile(scope: !594, file: !488, discriminator: 0)
!597 = !DILocation(line: 385, column: 8, scope: !596)
!598 = !DILocation(line: 385, column: 4, scope: !596)
!599 = !DILocation(line: 386, column: 24, scope: !596)
!600 = !DILocation(line: 386, column: 34, scope: !596)
!601 = !DILocation(line: 386, column: 55, scope: !596)
!602 = !DILocation(line: 386, column: 6, scope: !596)
!603 = !DILocation(line: 387, column: 20, scope: !596)
!604 = !DILocation(line: 388, column: 2, scope: !596)

